Archive member included to satisfy reference by file (symbol)

/home/crepel/Documents/EPFL/bluetooth_stuff/Link_layer_security/firmware_project/bin/targets/my_blinky_nordic/app/@apache-mynewt-core/hw/bsp/nordic_pca10056/@apache-mynewt-core_hw_bsp_nordic_pca10056.a(gcc_startup_nrf52840.o)
                              (Reset_Handler)
/home/crepel/Documents/EPFL/bluetooth_stuff/Link_layer_security/firmware_project/bin/targets/my_blinky_nordic/app/@apache-mynewt-core/hw/bsp/nordic_pca10056/@apache-mynewt-core_hw_bsp_nordic_pca10056.a(sbrk.o)
                              /home/crepel/Documents/EPFL/bluetooth_stuff/Link_layer_security/firmware_project/bin/targets/my_blinky_nordic/app/@apache-mynewt-core/hw/bsp/nordic_pca10056/@apache-mynewt-core_hw_bsp_nordic_pca10056.a(gcc_startup_nrf52840.o) (_sbrkInit)
/home/crepel/Documents/EPFL/bluetooth_stuff/Link_layer_security/firmware_project/bin/targets/my_blinky_nordic/app/@apache-mynewt-core/hw/mcu/nordic/nrf52xxx/@apache-mynewt-core_hw_mcu_nordic_nrf52xxx.a(hal_system.o)
                              /home/crepel/Documents/EPFL/bluetooth_stuff/Link_layer_security/firmware_project/bin/targets/my_blinky_nordic/app/@apache-mynewt-core/hw/bsp/nordic_pca10056/@apache-mynewt-core_hw_bsp_nordic_pca10056.a(gcc_startup_nrf52840.o) (hal_system_init)
/home/crepel/Documents/EPFL/bluetooth_stuff/Link_layer_security/firmware_project/bin/targets/my_blinky_nordic/app/@apache-mynewt-core/hw/mcu/nordic/nrf52xxx/@apache-mynewt-core_hw_mcu_nordic_nrf52xxx.a(system_nrf52.o)
                              /home/crepel/Documents/EPFL/bluetooth_stuff/Link_layer_security/firmware_project/bin/targets/my_blinky_nordic/app/@apache-mynewt-core/hw/bsp/nordic_pca10056/@apache-mynewt-core_hw_bsp_nordic_pca10056.a(gcc_startup_nrf52840.o) (SystemInit)
/home/crepel/Documents/EPFL/bluetooth_stuff/Link_layer_security/firmware_project/bin/targets/my_blinky_nordic/app/@apache-mynewt-core/libc/baselibc/@apache-mynewt-core_libc_baselibc.a(start.o)
                              /home/crepel/Documents/EPFL/bluetooth_stuff/Link_layer_security/firmware_project/bin/targets/my_blinky_nordic/app/@apache-mynewt-core/hw/bsp/nordic_pca10056/@apache-mynewt-core_hw_bsp_nordic_pca10056.a(gcc_startup_nrf52840.o) (_start)
/home/crepel/Documents/EPFL/bluetooth_stuff/Link_layer_security/firmware_project/bin/targets/my_blinky_nordic/app/apps/blinky/apps_blinky.a(main.o)
                              /home/crepel/Documents/EPFL/bluetooth_stuff/Link_layer_security/firmware_project/bin/targets/my_blinky_nordic/app/@apache-mynewt-core/libc/baselibc/@apache-mynewt-core_libc_baselibc.a(start.o) (main)
/home/crepel/Documents/EPFL/bluetooth_stuff/Link_layer_security/firmware_project/bin/targets/my_blinky_nordic/generated/bin/my_blinky_nordic-sysinit-app.a(my_blinky_nordic-sysinit-app.o)
                              /home/crepel/Documents/EPFL/bluetooth_stuff/Link_layer_security/firmware_project/bin/targets/my_blinky_nordic/app/apps/blinky/apps_blinky.a(main.o) (sysinit_app)
/home/crepel/Documents/EPFL/bluetooth_stuff/Link_layer_security/firmware_project/bin/targets/my_blinky_nordic/app/@apache-mynewt-core/hw/cmsis-core/@apache-mynewt-core_hw_cmsis-core.a(cmsis_nvic.o)
                              /home/crepel/Documents/EPFL/bluetooth_stuff/Link_layer_security/firmware_project/bin/targets/my_blinky_nordic/app/@apache-mynewt-core/hw/mcu/nordic/nrf52xxx/@apache-mynewt-core_hw_mcu_nordic_nrf52xxx.a(system_nrf52.o) (NVIC_Relocate)
/home/crepel/Documents/EPFL/bluetooth_stuff/Link_layer_security/firmware_project/bin/targets/my_blinky_nordic/app/@apache-mynewt-core/hw/mcu/nordic/nrf52xxx/@apache-mynewt-core_hw_mcu_nordic_nrf52xxx.a(hal_gpio.o)
                              /home/crepel/Documents/EPFL/bluetooth_stuff/Link_layer_security/firmware_project/bin/targets/my_blinky_nordic/app/apps/blinky/apps_blinky.a(main.o) (hal_gpio_init_out)
/home/crepel/Documents/EPFL/bluetooth_stuff/Link_layer_security/firmware_project/bin/targets/my_blinky_nordic/app/@apache-mynewt-core/kernel/os/@apache-mynewt-core_kernel_os.a(os.o)
                              /home/crepel/Documents/EPFL/bluetooth_stuff/Link_layer_security/firmware_project/bin/targets/my_blinky_nordic/app/@apache-mynewt-core/libc/baselibc/@apache-mynewt-core_libc_baselibc.a(start.o) (os_init)
/home/crepel/Documents/EPFL/bluetooth_stuff/Link_layer_security/firmware_project/bin/targets/my_blinky_nordic/app/@apache-mynewt-core/kernel/os/@apache-mynewt-core_kernel_os.a(os_callout.o)
                              /home/crepel/Documents/EPFL/bluetooth_stuff/Link_layer_security/firmware_project/bin/targets/my_blinky_nordic/app/@apache-mynewt-core/kernel/os/@apache-mynewt-core_kernel_os.a(os.o) (g_callout_list)
/home/crepel/Documents/EPFL/bluetooth_stuff/Link_layer_security/firmware_project/bin/targets/my_blinky_nordic/app/@apache-mynewt-core/kernel/os/@apache-mynewt-core_kernel_os.a(os_dev.o)
                              /home/crepel/Documents/EPFL/bluetooth_stuff/Link_layer_security/firmware_project/bin/targets/my_blinky_nordic/app/@apache-mynewt-core/kernel/os/@apache-mynewt-core_kernel_os.a(os.o) (os_dev_initialize_all)
/home/crepel/Documents/EPFL/bluetooth_stuff/Link_layer_security/firmware_project/bin/targets/my_blinky_nordic/app/@apache-mynewt-core/kernel/os/@apache-mynewt-core_kernel_os.a(os_eventq.o)
                              /home/crepel/Documents/EPFL/bluetooth_stuff/Link_layer_security/firmware_project/bin/targets/my_blinky_nordic/app/@apache-mynewt-core/kernel/os/@apache-mynewt-core_kernel_os.a(os.o) (os_eventq_init)
/home/crepel/Documents/EPFL/bluetooth_stuff/Link_layer_security/firmware_project/bin/targets/my_blinky_nordic/app/@apache-mynewt-core/kernel/os/@apache-mynewt-core_kernel_os.a(os_mempool.o)
                              /home/crepel/Documents/EPFL/bluetooth_stuff/Link_layer_security/firmware_project/bin/targets/my_blinky_nordic/app/@apache-mynewt-core/kernel/os/@apache-mynewt-core_kernel_os.a(os.o) (os_mempool_module_init)
/home/crepel/Documents/EPFL/bluetooth_stuff/Link_layer_security/firmware_project/bin/targets/my_blinky_nordic/app/@apache-mynewt-core/kernel/os/@apache-mynewt-core_kernel_os.a(os_msys.o)
                              /home/crepel/Documents/EPFL/bluetooth_stuff/Link_layer_security/firmware_project/bin/targets/my_blinky_nordic/app/@apache-mynewt-core/kernel/os/@apache-mynewt-core_kernel_os.a(os.o) (os_msys_init)
/home/crepel/Documents/EPFL/bluetooth_stuff/Link_layer_security/firmware_project/bin/targets/my_blinky_nordic/app/@apache-mynewt-core/kernel/os/@apache-mynewt-core_kernel_os.a(os_sanity.o)
                              /home/crepel/Documents/EPFL/bluetooth_stuff/Link_layer_security/firmware_project/bin/targets/my_blinky_nordic/app/@apache-mynewt-core/kernel/os/@apache-mynewt-core_kernel_os.a(os.o) (os_sanity_run)
/home/crepel/Documents/EPFL/bluetooth_stuff/Link_layer_security/firmware_project/bin/targets/my_blinky_nordic/app/@apache-mynewt-core/kernel/os/@apache-mynewt-core_kernel_os.a(os_sched.o)
                              /home/crepel/Documents/EPFL/bluetooth_stuff/Link_layer_security/firmware_project/bin/targets/my_blinky_nordic/app/@apache-mynewt-core/kernel/os/@apache-mynewt-core_kernel_os.a(os_eventq.o) (os_sched_get_current_task)
/home/crepel/Documents/EPFL/bluetooth_stuff/Link_layer_security/firmware_project/bin/targets/my_blinky_nordic/app/@apache-mynewt-core/kernel/os/@apache-mynewt-core_kernel_os.a(os_task.o)
                              /home/crepel/Documents/EPFL/bluetooth_stuff/Link_layer_security/firmware_project/bin/targets/my_blinky_nordic/app/@apache-mynewt-core/kernel/os/@apache-mynewt-core_kernel_os.a(os.o) (os_task_init)
/home/crepel/Documents/EPFL/bluetooth_stuff/Link_layer_security/firmware_project/bin/targets/my_blinky_nordic/app/@apache-mynewt-core/kernel/os/@apache-mynewt-core_kernel_os.a(os_time.o)
                              /home/crepel/Documents/EPFL/bluetooth_stuff/Link_layer_security/firmware_project/bin/targets/my_blinky_nordic/app/@apache-mynewt-core/kernel/os/@apache-mynewt-core_kernel_os.a(os_sched.o) (g_os_time)
/home/crepel/Documents/EPFL/bluetooth_stuff/Link_layer_security/firmware_project/bin/targets/my_blinky_nordic/app/@apache-mynewt-core/kernel/os/@apache-mynewt-core_kernel_os.a(os_arch_arm.o)
                              /home/crepel/Documents/EPFL/bluetooth_stuff/Link_layer_security/firmware_project/bin/targets/my_blinky_nordic/app/@apache-mynewt-core/kernel/os/@apache-mynewt-core_kernel_os.a(os_sched.o) (os_arch_ctx_sw)
/home/crepel/Documents/EPFL/bluetooth_stuff/Link_layer_security/firmware_project/bin/targets/my_blinky_nordic/app/@apache-mynewt-core/kernel/os/@apache-mynewt-core_kernel_os.a(os_fault.o)
                              /home/crepel/Documents/EPFL/bluetooth_stuff/Link_layer_security/firmware_project/bin/targets/my_blinky_nordic/app/@apache-mynewt-core/kernel/os/@apache-mynewt-core_kernel_os.a(os.o) (__assert_func)
/home/crepel/Documents/EPFL/bluetooth_stuff/Link_layer_security/firmware_project/bin/targets/my_blinky_nordic/app/@apache-mynewt-core/kernel/os/@apache-mynewt-core_kernel_os.a(os_mbuf.o)
                              /home/crepel/Documents/EPFL/bluetooth_stuff/Link_layer_security/firmware_project/bin/targets/my_blinky_nordic/app/@apache-mynewt-core/kernel/os/@apache-mynewt-core_kernel_os.a(os_msys.o) (os_mbuf_get)
/home/crepel/Documents/EPFL/bluetooth_stuff/Link_layer_security/firmware_project/bin/targets/my_blinky_nordic/app/@apache-mynewt-core/kernel/os/@apache-mynewt-core_kernel_os.a(os_mutex.o)
                              /home/crepel/Documents/EPFL/bluetooth_stuff/Link_layer_security/firmware_project/bin/targets/my_blinky_nordic/app/@apache-mynewt-core/kernel/os/@apache-mynewt-core_kernel_os.a(os_sanity.o) (os_mutex_init)
/home/crepel/Documents/EPFL/bluetooth_stuff/Link_layer_security/firmware_project/bin/targets/my_blinky_nordic/app/@apache-mynewt-core/kernel/os/@apache-mynewt-core_kernel_os.a(HAL_CM4.o)
                              /home/crepel/Documents/EPFL/bluetooth_stuff/Link_layer_security/firmware_project/bin/targets/my_blinky_nordic/app/@apache-mynewt-core/kernel/os/@apache-mynewt-core_kernel_os.a(os_arch_arm.o) (os_set_env)
/home/crepel/Documents/EPFL/bluetooth_stuff/Link_layer_security/firmware_project/bin/targets/my_blinky_nordic/app/@apache-mynewt-core/kernel/os/@apache-mynewt-core_kernel_os.a(SVC_Table.o)
                              /home/crepel/Documents/EPFL/bluetooth_stuff/Link_layer_security/firmware_project/bin/targets/my_blinky_nordic/app/@apache-mynewt-core/kernel/os/@apache-mynewt-core_kernel_os.a(HAL_CM4.o) (SVC_Table)
/home/crepel/Documents/EPFL/bluetooth_stuff/Link_layer_security/firmware_project/bin/targets/my_blinky_nordic/app/@apache-mynewt-core/libc/baselibc/@apache-mynewt-core_libc_baselibc.a(memcmp.o)
                              /home/crepel/Documents/EPFL/bluetooth_stuff/Link_layer_security/firmware_project/bin/targets/my_blinky_nordic/app/@apache-mynewt-core/kernel/os/@apache-mynewt-core_kernel_os.a(os_mbuf.o) (memcmp)
/home/crepel/Documents/EPFL/bluetooth_stuff/Link_layer_security/firmware_project/bin/targets/my_blinky_nordic/app/@apache-mynewt-core/libc/baselibc/@apache-mynewt-core_libc_baselibc.a(memcpy.o)
                              /home/crepel/Documents/EPFL/bluetooth_stuff/Link_layer_security/firmware_project/bin/targets/my_blinky_nordic/app/@apache-mynewt-core/kernel/os/@apache-mynewt-core_kernel_os.a(os_mbuf.o) (memcpy)
/home/crepel/Documents/EPFL/bluetooth_stuff/Link_layer_security/firmware_project/bin/targets/my_blinky_nordic/app/@apache-mynewt-core/libc/baselibc/@apache-mynewt-core_libc_baselibc.a(memmove.o)
                              /home/crepel/Documents/EPFL/bluetooth_stuff/Link_layer_security/firmware_project/bin/targets/my_blinky_nordic/app/@apache-mynewt-core/kernel/os/@apache-mynewt-core_kernel_os.a(os_mbuf.o) (memmove)
/home/crepel/Documents/EPFL/bluetooth_stuff/Link_layer_security/firmware_project/bin/targets/my_blinky_nordic/app/@apache-mynewt-core/libc/baselibc/@apache-mynewt-core_libc_baselibc.a(memset.o)
                              /home/crepel/Documents/EPFL/bluetooth_stuff/Link_layer_security/firmware_project/bin/targets/my_blinky_nordic/app/@apache-mynewt-core/kernel/os/@apache-mynewt-core_kernel_os.a(os_callout.o) (memset)
/home/crepel/Documents/EPFL/bluetooth_stuff/Link_layer_security/firmware_project/bin/targets/my_blinky_nordic/app/@apache-mynewt-core/libc/baselibc/@apache-mynewt-core_libc_baselibc.a(strcmp.o)
                              /home/crepel/Documents/EPFL/bluetooth_stuff/Link_layer_security/firmware_project/bin/targets/my_blinky_nordic/app/@apache-mynewt-core/kernel/os/@apache-mynewt-core_kernel_os.a(os_dev.o) (strcmp)
/home/crepel/Documents/EPFL/bluetooth_stuff/Link_layer_security/firmware_project/bin/targets/my_blinky_nordic/app/@apache-mynewt-core/libc/baselibc/@apache-mynewt-core_libc_baselibc.a(strncat.o)
                              /home/crepel/Documents/EPFL/bluetooth_stuff/Link_layer_security/firmware_project/bin/targets/my_blinky_nordic/app/@apache-mynewt-core/kernel/os/@apache-mynewt-core_kernel_os.a(os_mempool.o) (strncat)
/home/crepel/Documents/EPFL/bluetooth_stuff/Link_layer_security/firmware_project/bin/targets/my_blinky_nordic/app/@apache-mynewt-core/libc/baselibc/@apache-mynewt-core_libc_baselibc.a(strlen.o)
                              /home/crepel/Documents/EPFL/bluetooth_stuff/Link_layer_security/firmware_project/bin/targets/my_blinky_nordic/app/@apache-mynewt-core/libc/baselibc/@apache-mynewt-core_libc_baselibc.a(strncat.o) (strlen)
/home/crepel/Documents/EPFL/bluetooth_stuff/Link_layer_security/firmware_project/bin/targets/my_blinky_nordic/app/@apache-mynewt-core/sys/flash_map/@apache-mynewt-core_sys_flash_map.a(flash_map.o)
                              /home/crepel/Documents/EPFL/bluetooth_stuff/Link_layer_security/firmware_project/bin/targets/my_blinky_nordic/generated/bin/my_blinky_nordic-sysinit-app.a(my_blinky_nordic-sysinit-app.o) (flash_map_init)
/home/crepel/Documents/EPFL/bluetooth_stuff/Link_layer_security/firmware_project/bin/targets/my_blinky_nordic/app/@apache-mynewt-core/sys/log/modlog/@apache-mynewt-core_sys_log_modlog.a(modlog.o)
                              /home/crepel/Documents/EPFL/bluetooth_stuff/Link_layer_security/firmware_project/bin/targets/my_blinky_nordic/generated/bin/my_blinky_nordic-sysinit-app.a(my_blinky_nordic-sysinit-app.o) (modlog_init)
/home/crepel/Documents/EPFL/bluetooth_stuff/Link_layer_security/firmware_project/bin/targets/my_blinky_nordic/app/@apache-mynewt-core/sys/mfg/@apache-mynewt-core_sys_mfg.a(mfg.o)
                              /home/crepel/Documents/EPFL/bluetooth_stuff/Link_layer_security/firmware_project/bin/targets/my_blinky_nordic/app/@apache-mynewt-core/sys/flash_map/@apache-mynewt-core_sys_flash_map.a(flash_map.o) (mfg_seek_next_with_type)
/home/crepel/Documents/EPFL/bluetooth_stuff/Link_layer_security/firmware_project/bin/targets/my_blinky_nordic/app/@apache-mynewt-core/sys/sysdown/@apache-mynewt-core_sys_sysdown.a(sysdown.o)
                              /home/crepel/Documents/EPFL/bluetooth_stuff/Link_layer_security/firmware_project/bin/targets/my_blinky_nordic/app/@apache-mynewt-core/kernel/os/@apache-mynewt-core_kernel_os.a(os.o) (sysdown)
/home/crepel/Documents/EPFL/bluetooth_stuff/Link_layer_security/firmware_project/bin/targets/my_blinky_nordic/app/@apache-mynewt-core/sys/sysinit/@apache-mynewt-core_sys_sysinit.a(sysinit.o)
                              /home/crepel/Documents/EPFL/bluetooth_stuff/Link_layer_security/firmware_project/bin/targets/my_blinky_nordic/app/apps/blinky/apps_blinky.a(main.o) (sysinit_start)
/home/crepel/Documents/EPFL/bluetooth_stuff/Link_layer_security/firmware_project/bin/targets/my_blinky_nordic/app/@apache-mynewt-core/util/mem/@apache-mynewt-core_util_mem.a(mem.o)
                              /home/crepel/Documents/EPFL/bluetooth_stuff/Link_layer_security/firmware_project/bin/targets/my_blinky_nordic/app/@apache-mynewt-core/kernel/os/@apache-mynewt-core_kernel_os.a(os_msys.o) (mem_init_mbuf_pool)
/home/crepel/Documents/EPFL/bluetooth_stuff/Link_layer_security/firmware_project/bin/targets/my_blinky_nordic/generated/bin/my_blinky_nordic-sysinit-app.a(my_blinky_nordic-sysdown-app.o)
                              /home/crepel/Documents/EPFL/bluetooth_stuff/Link_layer_security/firmware_project/bin/targets/my_blinky_nordic/app/@apache-mynewt-core/sys/sysdown/@apache-mynewt-core_sys_sysdown.a(sysdown.o) (sysdown_cbs)
/home/crepel/Documents/EPFL/bluetooth_stuff/Link_layer_security/firmware_project/bin/targets/my_blinky_nordic/generated/bin/my_blinky_nordic-sysinit-app.a(my_blinky_nordic-sysflash.o)
                              /home/crepel/Documents/EPFL/bluetooth_stuff/Link_layer_security/firmware_project/bin/targets/my_blinky_nordic/app/@apache-mynewt-core/sys/flash_map/@apache-mynewt-core_sys_flash_map.a(flash_map.o) (sysflash_map_dflt)
/home/crepel/Documents/EPFL/bluetooth_stuff/Link_layer_security/firmware_project/bin/targets/my_blinky_nordic/app/@apache-mynewt-core/hw/bsp/nordic_pca10056/@apache-mynewt-core_hw_bsp_nordic_pca10056.a(hal_bsp.o)
                              /home/crepel/Documents/EPFL/bluetooth_stuff/Link_layer_security/firmware_project/bin/targets/my_blinky_nordic/app/@apache-mynewt-core/sys/flash_map/@apache-mynewt-core_sys_flash_map.a(flash_map.o) (hal_bsp_flash_dev)
/home/crepel/Documents/EPFL/bluetooth_stuff/Link_layer_security/firmware_project/bin/targets/my_blinky_nordic/app/@apache-mynewt-core/hw/hal/@apache-mynewt-core_hw_hal.a(hal_flash.o)
                              /home/crepel/Documents/EPFL/bluetooth_stuff/Link_layer_security/firmware_project/bin/targets/my_blinky_nordic/app/@apache-mynewt-core/sys/flash_map/@apache-mynewt-core_sys_flash_map.a(flash_map.o) (hal_flash_init)
/home/crepel/Documents/EPFL/bluetooth_stuff/Link_layer_security/firmware_project/bin/targets/my_blinky_nordic/app/@apache-mynewt-core/hw/mcu/nordic/nrf52xxx/@apache-mynewt-core_hw_mcu_nordic_nrf52xxx.a(hal_flash.o)
                              /home/crepel/Documents/EPFL/bluetooth_stuff/Link_layer_security/firmware_project/bin/targets/my_blinky_nordic/app/@apache-mynewt-core/hw/bsp/nordic_pca10056/@apache-mynewt-core_hw_bsp_nordic_pca10056.a(hal_bsp.o) (nrf52k_flash_dev)
/home/crepel/Documents/EPFL/bluetooth_stuff/Link_layer_security/firmware_project/bin/targets/my_blinky_nordic/app/@apache-mynewt-core/hw/mcu/nordic/nrf52xxx/@apache-mynewt-core_hw_mcu_nordic_nrf52xxx.a(hal_os_tick.o)
                              /home/crepel/Documents/EPFL/bluetooth_stuff/Link_layer_security/firmware_project/bin/targets/my_blinky_nordic/app/@apache-mynewt-core/kernel/os/@apache-mynewt-core_kernel_os.a(os.o) (os_tick_idle)
/home/crepel/Documents/EPFL/bluetooth_stuff/Link_layer_security/firmware_project/bin/targets/my_blinky_nordic/app/@apache-mynewt-core/hw/mcu/nordic/nrf52xxx/@apache-mynewt-core_hw_mcu_nordic_nrf52xxx.a(hal_watchdog.o)
                              /home/crepel/Documents/EPFL/bluetooth_stuff/Link_layer_security/firmware_project/bin/targets/my_blinky_nordic/app/@apache-mynewt-core/kernel/os/@apache-mynewt-core_kernel_os.a(os.o) (hal_watchdog_init)
/home/crepel/Documents/EPFL/bluetooth_stuff/Link_layer_security/firmware_project/bin/targets/my_blinky_nordic/app/@apache-mynewt-core/hw/mcu/nordic/nrf52xxx/@apache-mynewt-core_hw_mcu_nordic_nrf52xxx.a(nrf52_periph.o)
                              /home/crepel/Documents/EPFL/bluetooth_stuff/Link_layer_security/firmware_project/bin/targets/my_blinky_nordic/app/@apache-mynewt-core/hw/bsp/nordic_pca10056/@apache-mynewt-core_hw_bsp_nordic_pca10056.a(hal_bsp.o) (nrf52_periph_create)
/home/crepel/Documents/EPFL/bluetooth_stuff/Link_layer_security/firmware_project/bin/targets/my_blinky_nordic/app/@apache-mynewt-core/hw/mcu/nordic/nrf52xxx/@apache-mynewt-core_hw_mcu_nordic_nrf52xxx.a(hal_timer.o)
                              /home/crepel/Documents/EPFL/bluetooth_stuff/Link_layer_security/firmware_project/bin/targets/my_blinky_nordic/app/@apache-mynewt-core/hw/mcu/nordic/nrf52xxx/@apache-mynewt-core_hw_mcu_nordic_nrf52xxx.a(nrf52_periph.o) (hal_timer_init)
/home/crepel/Documents/EPFL/bluetooth_stuff/Link_layer_security/firmware_project/bin/targets/my_blinky_nordic/app/@apache-mynewt-core/kernel/os/@apache-mynewt-core_kernel_os.a(os_cputime.o)
                              /home/crepel/Documents/EPFL/bluetooth_stuff/Link_layer_security/firmware_project/bin/targets/my_blinky_nordic/app/@apache-mynewt-core/hw/mcu/nordic/nrf52xxx/@apache-mynewt-core_hw_mcu_nordic_nrf52xxx.a(nrf52_periph.o) (os_cputime_init)
/home/crepel/Documents/EPFL/bluetooth_stuff/Link_layer_security/firmware_project/bin/targets/my_blinky_nordic/app/@apache-mynewt-core/kernel/os/@apache-mynewt-core_kernel_os.a(os_cputime_1mhz.o)
                              /home/crepel/Documents/EPFL/bluetooth_stuff/Link_layer_security/firmware_project/bin/targets/my_blinky_nordic/app/@apache-mynewt-core/kernel/os/@apache-mynewt-core_kernel_os.a(os_cputime.o) (os_cputime_nsecs_to_ticks)
/home/crepel/Documents/EPFL/bluetooth_stuff/Link_layer_security/firmware_project/bin/targets/my_blinky_nordic/app/@apache-mynewt-core/libc/baselibc/@apache-mynewt-core_libc_baselibc.a(malloc.o)
                              /home/crepel/Documents/EPFL/bluetooth_stuff/Link_layer_security/firmware_project/bin/targets/my_blinky_nordic/app/@apache-mynewt-core/util/mem/@apache-mynewt-core_util_mem.a(mem.o) (malloc)
/home/crepel/Documents/EPFL/bluetooth_stuff/Link_layer_security/firmware_project/bin/targets/my_blinky_nordic/app/@apache-mynewt-core/hw/drivers/uart/uart_hal/@apache-mynewt-core_hw_drivers_uart_uart_hal.a(uart_hal.o)
                              /home/crepel/Documents/EPFL/bluetooth_stuff/Link_layer_security/firmware_project/bin/targets/my_blinky_nordic/app/@apache-mynewt-core/hw/mcu/nordic/nrf52xxx/@apache-mynewt-core_hw_mcu_nordic_nrf52xxx.a(nrf52_periph.o) (uart_hal_init)
/home/crepel/Documents/EPFL/bluetooth_stuff/Link_layer_security/firmware_project/bin/targets/my_blinky_nordic/app/@apache-mynewt-core/hw/mcu/nordic/nrf52xxx/@apache-mynewt-core_hw_mcu_nordic_nrf52xxx.a(hal_uart.o)
                              /home/crepel/Documents/EPFL/bluetooth_stuff/Link_layer_security/firmware_project/bin/targets/my_blinky_nordic/app/@apache-mynewt-core/hw/drivers/uart/uart_hal/@apache-mynewt-core_hw_drivers_uart_uart_hal.a(uart_hal.o) (hal_uart_init_cbs)
/usr/bin/../lib/gcc/arm-none-eabi/7.3.1/thumb/v7e-m/libgcc.a(_aeabi_uldivmod.o)
                              /home/crepel/Documents/EPFL/bluetooth_stuff/Link_layer_security/firmware_project/bin/targets/my_blinky_nordic/app/@apache-mynewt-core/kernel/os/@apache-mynewt-core_kernel_os.a(os_time.o) (__aeabi_uldivmod)
/usr/bin/../lib/gcc/arm-none-eabi/7.3.1/thumb/v7e-m/libgcc.a(_udivmoddi4.o)
                              /usr/bin/../lib/gcc/arm-none-eabi/7.3.1/thumb/v7e-m/libgcc.a(_aeabi_uldivmod.o) (__udivmoddi4)
/usr/bin/../lib/gcc/arm-none-eabi/7.3.1/thumb/v7e-m/libgcc.a(_dvmd_tls.o)
                              /usr/bin/../lib/gcc/arm-none-eabi/7.3.1/thumb/v7e-m/libgcc.a(_aeabi_uldivmod.o) (__aeabi_ldiv0)

Allocating common symbols
Common symbol       size              file

g_os_task_list      0x8               /home/crepel/Documents/EPFL/bluetooth_stuff/Link_layer_security/firmware_project/bin/targets/my_blinky_nordic/app/@apache-mynewt-core/kernel/os/@apache-mynewt-core_kernel_os.a(os_task.o)
g_os_mempool_list   0x8               /home/crepel/Documents/EPFL/bluetooth_stuff/Link_layer_security/firmware_project/bin/targets/my_blinky_nordic/app/@apache-mynewt-core/kernel/os/@apache-mynewt-core_kernel_os.a(os_mempool.o)
flash_map           0x4               /home/crepel/Documents/EPFL/bluetooth_stuff/Link_layer_security/firmware_project/bin/targets/my_blinky_nordic/app/@apache-mynewt-core/sys/flash_map/@apache-mynewt-core_sys_flash_map.a(flash_map.o)
g_callout_list      0x8               /home/crepel/Documents/EPFL/bluetooth_stuff/Link_layer_security/firmware_project/bin/targets/my_blinky_nordic/app/@apache-mynewt-core/kernel/os/@apache-mynewt-core_kernel_os.a(os_callout.o)
g_current_task      0x4               /home/crepel/Documents/EPFL/bluetooth_stuff/Link_layer_security/firmware_project/bin/targets/my_blinky_nordic/app/@apache-mynewt-core/kernel/os/@apache-mynewt-core_kernel_os.a(os_sched.o)
sysdown_active      0x1               /home/crepel/Documents/EPFL/bluetooth_stuff/Link_layer_security/firmware_project/bin/targets/my_blinky_nordic/app/@apache-mynewt-core/sys/sysdown/@apache-mynewt-core_sys_sysdown.a(sysdown.o)
g_led_pin           0x4               /home/crepel/Documents/EPFL/bluetooth_stuff/Link_layer_security/firmware_project/bin/targets/my_blinky_nordic/app/apps/blinky/apps_blinky.a(main.o)
g_task_id           0x1               /home/crepel/Documents/EPFL/bluetooth_stuff/Link_layer_security/firmware_project/bin/targets/my_blinky_nordic/app/@apache-mynewt-core/kernel/os/@apache-mynewt-core_kernel_os.a(os_task.o)
g_os_sanity_check_mu
                    0xc               /home/crepel/Documents/EPFL/bluetooth_stuff/Link_layer_security/firmware_project/bin/targets/my_blinky_nordic/app/@apache-mynewt-core/kernel/os/@apache-mynewt-core_kernel_os.a(os_sanity.o)
sysinit_active      0x1               /home/crepel/Documents/EPFL/bluetooth_stuff/Link_layer_security/firmware_project/bin/targets/my_blinky_nordic/app/@apache-mynewt-core/sys/sysinit/@apache-mynewt-core_sys_sysinit.a(sysinit.o)
g_os_time           0x4               /home/crepel/Documents/EPFL/bluetooth_stuff/Link_layer_security/firmware_project/bin/targets/my_blinky_nordic/app/@apache-mynewt-core/kernel/os/@apache-mynewt-core_kernel_os.a(os_time.o)
g_idle_task         0x50              /home/crepel/Documents/EPFL/bluetooth_stuff/Link_layer_security/firmware_project/bin/targets/my_blinky_nordic/app/@apache-mynewt-core/kernel/os/@apache-mynewt-core_kernel_os.a(os.o)
g_os_last_ctx_sw_time
                    0x4               /home/crepel/Documents/EPFL/bluetooth_stuff/Link_layer_security/firmware_project/bin/targets/my_blinky_nordic/app/@apache-mynewt-core/kernel/os/@apache-mynewt-core_kernel_os.a(os_sched.o)
g_os_idle_ctr       0x4               /home/crepel/Documents/EPFL/bluetooth_stuff/Link_layer_security/firmware_project/bin/targets/my_blinky_nordic/app/@apache-mynewt-core/kernel/os/@apache-mynewt-core_kernel_os.a(os.o)
flash_map_entries   0x4               /home/crepel/Documents/EPFL/bluetooth_stuff/Link_layer_security/firmware_project/bin/targets/my_blinky_nordic/app/@apache-mynewt-core/sys/flash_map/@apache-mynewt-core_sys_flash_map.a(flash_map.o)
nrf52_hal_timer0    0x1c              /home/crepel/Documents/EPFL/bluetooth_stuff/Link_layer_security/firmware_project/bin/targets/my_blinky_nordic/app/@apache-mynewt-core/hw/mcu/nordic/nrf52xxx/@apache-mynewt-core_hw_mcu_nordic_nrf52xxx.a(hal_timer.o)
g_hal_os_tick       0xc               /home/crepel/Documents/EPFL/bluetooth_stuff/Link_layer_security/firmware_project/bin/targets/my_blinky_nordic/app/@apache-mynewt-core/hw/mcu/nordic/nrf52xxx/@apache-mynewt-core_hw_mcu_nordic_nrf52xxx.a(hal_os_tick.o)
g_os_started        0x4               /home/crepel/Documents/EPFL/bluetooth_stuff/Link_layer_security/firmware_project/bin/targets/my_blinky_nordic/app/@apache-mynewt-core/kernel/os/@apache-mynewt-core_kernel_os.a(os.o)
g_os_main_task      0x50              /home/crepel/Documents/EPFL/bluetooth_stuff/Link_layer_security/firmware_project/bin/targets/my_blinky_nordic/app/@apache-mynewt-core/kernel/os/@apache-mynewt-core_kernel_os.a(os.o)

Discarded input sections

 .data          0x0000000000000000        0x0 /home/crepel/Documents/EPFL/bluetooth_stuff/Link_layer_security/firmware_project/bin/targets/my_blinky_nordic/app/@apache-mynewt-core/hw/bsp/nordic_pca10056/@apache-mynewt-core_hw_bsp_nordic_pca10056.a(gcc_startup_nrf52840.o)
 .bss           0x0000000000000000        0x0 /home/crepel/Documents/EPFL/bluetooth_stuff/Link_layer_security/firmware_project/bin/targets/my_blinky_nordic/app/@apache-mynewt-core/hw/bsp/nordic_pca10056/@apache-mynewt-core_hw_bsp_nordic_pca10056.a(gcc_startup_nrf52840.o)
 .ARM.extab     0x0000000000000000        0x0 /home/crepel/Documents/EPFL/bluetooth_stuff/Link_layer_security/firmware_project/bin/targets/my_blinky_nordic/app/@apache-mynewt-core/hw/bsp/nordic_pca10056/@apache-mynewt-core_hw_bsp_nordic_pca10056.a(gcc_startup_nrf52840.o)
 .text          0x0000000000000000        0x0 /home/crepel/Documents/EPFL/bluetooth_stuff/Link_layer_security/firmware_project/bin/targets/my_blinky_nordic/app/@apache-mynewt-core/hw/bsp/nordic_pca10056/@apache-mynewt-core_hw_bsp_nordic_pca10056.a(sbrk.o)
 .bss           0x0000000000000000        0x0 /home/crepel/Documents/EPFL/bluetooth_stuff/Link_layer_security/firmware_project/bin/targets/my_blinky_nordic/app/@apache-mynewt-core/hw/bsp/nordic_pca10056/@apache-mynewt-core_hw_bsp_nordic_pca10056.a(sbrk.o)
 .text._sbrk    0x0000000000000000       0x3c /home/crepel/Documents/EPFL/bluetooth_stuff/Link_layer_security/firmware_project/bin/targets/my_blinky_nordic/app/@apache-mynewt-core/hw/bsp/nordic_pca10056/@apache-mynewt-core_hw_bsp_nordic_pca10056.a(sbrk.o)
 .text          0x0000000000000000        0x0 /home/crepel/Documents/EPFL/bluetooth_stuff/Link_layer_security/firmware_project/bin/targets/my_blinky_nordic/app/@apache-mynewt-core/hw/mcu/nordic/nrf52xxx/@apache-mynewt-core_hw_mcu_nordic_nrf52xxx.a(hal_system.o)
 .data          0x0000000000000000        0x0 /home/crepel/Documents/EPFL/bluetooth_stuff/Link_layer_security/firmware_project/bin/targets/my_blinky_nordic/app/@apache-mynewt-core/hw/mcu/nordic/nrf52xxx/@apache-mynewt-core_hw_mcu_nordic_nrf52xxx.a(hal_system.o)
 .bss           0x0000000000000000        0x0 /home/crepel/Documents/EPFL/bluetooth_stuff/Link_layer_security/firmware_project/bin/targets/my_blinky_nordic/app/@apache-mynewt-core/hw/mcu/nordic/nrf52xxx/@apache-mynewt-core_hw_mcu_nordic_nrf52xxx.a(hal_system.o)
 .text          0x0000000000000000        0x0 /home/crepel/Documents/EPFL/bluetooth_stuff/Link_layer_security/firmware_project/bin/targets/my_blinky_nordic/app/@apache-mynewt-core/hw/mcu/nordic/nrf52xxx/@apache-mynewt-core_hw_mcu_nordic_nrf52xxx.a(system_nrf52.o)
 .data          0x0000000000000000        0x0 /home/crepel/Documents/EPFL/bluetooth_stuff/Link_layer_security/firmware_project/bin/targets/my_blinky_nordic/app/@apache-mynewt-core/hw/mcu/nordic/nrf52xxx/@apache-mynewt-core_hw_mcu_nordic_nrf52xxx.a(system_nrf52.o)
 .bss           0x0000000000000000        0x0 /home/crepel/Documents/EPFL/bluetooth_stuff/Link_layer_security/firmware_project/bin/targets/my_blinky_nordic/app/@apache-mynewt-core/hw/mcu/nordic/nrf52xxx/@apache-mynewt-core_hw_mcu_nordic_nrf52xxx.a(system_nrf52.o)
 .text          0x0000000000000000        0x0 /home/crepel/Documents/EPFL/bluetooth_stuff/Link_layer_security/firmware_project/bin/targets/my_blinky_nordic/app/@apache-mynewt-core/libc/baselibc/@apache-mynewt-core_libc_baselibc.a(start.o)
 .data          0x0000000000000000        0x0 /home/crepel/Documents/EPFL/bluetooth_stuff/Link_layer_security/firmware_project/bin/targets/my_blinky_nordic/app/@apache-mynewt-core/libc/baselibc/@apache-mynewt-core_libc_baselibc.a(start.o)
 .bss           0x0000000000000000        0x0 /home/crepel/Documents/EPFL/bluetooth_stuff/Link_layer_security/firmware_project/bin/targets/my_blinky_nordic/app/@apache-mynewt-core/libc/baselibc/@apache-mynewt-core_libc_baselibc.a(start.o)
 .text          0x0000000000000000        0x0 /home/crepel/Documents/EPFL/bluetooth_stuff/Link_layer_security/firmware_project/bin/targets/my_blinky_nordic/app/apps/blinky/apps_blinky.a(main.o)
 .data          0x0000000000000000        0x0 /home/crepel/Documents/EPFL/bluetooth_stuff/Link_layer_security/firmware_project/bin/targets/my_blinky_nordic/app/apps/blinky/apps_blinky.a(main.o)
 .bss           0x0000000000000000        0x0 /home/crepel/Documents/EPFL/bluetooth_stuff/Link_layer_security/firmware_project/bin/targets/my_blinky_nordic/app/apps/blinky/apps_blinky.a(main.o)
 .text          0x0000000000000000        0x0 /home/crepel/Documents/EPFL/bluetooth_stuff/Link_layer_security/firmware_project/bin/targets/my_blinky_nordic/generated/bin/my_blinky_nordic-sysinit-app.a(my_blinky_nordic-sysinit-app.o)
 .data          0x0000000000000000        0x0 /home/crepel/Documents/EPFL/bluetooth_stuff/Link_layer_security/firmware_project/bin/targets/my_blinky_nordic/generated/bin/my_blinky_nordic-sysinit-app.a(my_blinky_nordic-sysinit-app.o)
 .bss           0x0000000000000000        0x0 /home/crepel/Documents/EPFL/bluetooth_stuff/Link_layer_security/firmware_project/bin/targets/my_blinky_nordic/generated/bin/my_blinky_nordic-sysinit-app.a(my_blinky_nordic-sysinit-app.o)
 .text          0x0000000000000000        0x0 /home/crepel/Documents/EPFL/bluetooth_stuff/Link_layer_security/firmware_project/bin/targets/my_blinky_nordic/app/@apache-mynewt-core/hw/cmsis-core/@apache-mynewt-core_hw_cmsis-core.a(cmsis_nvic.o)
 .data          0x0000000000000000        0x0 /home/crepel/Documents/EPFL/bluetooth_stuff/Link_layer_security/firmware_project/bin/targets/my_blinky_nordic/app/@apache-mynewt-core/hw/cmsis-core/@apache-mynewt-core_hw_cmsis-core.a(cmsis_nvic.o)
 .bss           0x0000000000000000        0x0 /home/crepel/Documents/EPFL/bluetooth_stuff/Link_layer_security/firmware_project/bin/targets/my_blinky_nordic/app/@apache-mynewt-core/hw/cmsis-core/@apache-mynewt-core_hw_cmsis-core.a(cmsis_nvic.o)
 .text          0x0000000000000000        0x0 /home/crepel/Documents/EPFL/bluetooth_stuff/Link_layer_security/firmware_project/bin/targets/my_blinky_nordic/app/@apache-mynewt-core/hw/mcu/nordic/nrf52xxx/@apache-mynewt-core_hw_mcu_nordic_nrf52xxx.a(hal_gpio.o)
 .data          0x0000000000000000        0x0 /home/crepel/Documents/EPFL/bluetooth_stuff/Link_layer_security/firmware_project/bin/targets/my_blinky_nordic/app/@apache-mynewt-core/hw/mcu/nordic/nrf52xxx/@apache-mynewt-core_hw_mcu_nordic_nrf52xxx.a(hal_gpio.o)
 .bss           0x0000000000000000        0x0 /home/crepel/Documents/EPFL/bluetooth_stuff/Link_layer_security/firmware_project/bin/targets/my_blinky_nordic/app/@apache-mynewt-core/hw/mcu/nordic/nrf52xxx/@apache-mynewt-core_hw_mcu_nordic_nrf52xxx.a(hal_gpio.o)
 .text.hal_gpio_irq_handler
                0x0000000000000000       0x50 /home/crepel/Documents/EPFL/bluetooth_stuff/Link_layer_security/firmware_project/bin/targets/my_blinky_nordic/app/@apache-mynewt-core/hw/mcu/nordic/nrf52xxx/@apache-mynewt-core_hw_mcu_nordic_nrf52xxx.a(hal_gpio.o)
 .text.hal_gpio_irq_setup
                0x0000000000000000       0x2c /home/crepel/Documents/EPFL/bluetooth_stuff/Link_layer_security/firmware_project/bin/targets/my_blinky_nordic/app/@apache-mynewt-core/hw/mcu/nordic/nrf52xxx/@apache-mynewt-core_hw_mcu_nordic_nrf52xxx.a(hal_gpio.o)
 .text.hal_gpio_find_empty_slot
                0x0000000000000000       0x1c /home/crepel/Documents/EPFL/bluetooth_stuff/Link_layer_security/firmware_project/bin/targets/my_blinky_nordic/app/@apache-mynewt-core/hw/mcu/nordic/nrf52xxx/@apache-mynewt-core_hw_mcu_nordic_nrf52xxx.a(hal_gpio.o)
 .text.hal_gpio_find_pin
                0x0000000000000000       0x38 /home/crepel/Documents/EPFL/bluetooth_stuff/Link_layer_security/firmware_project/bin/targets/my_blinky_nordic/app/@apache-mynewt-core/hw/mcu/nordic/nrf52xxx/@apache-mynewt-core_hw_mcu_nordic_nrf52xxx.a(hal_gpio.o)
 .text.hal_gpio_init_in
                0x0000000000000000       0x40 /home/crepel/Documents/EPFL/bluetooth_stuff/Link_layer_security/firmware_project/bin/targets/my_blinky_nordic/app/@apache-mynewt-core/hw/mcu/nordic/nrf52xxx/@apache-mynewt-core_hw_mcu_nordic_nrf52xxx.a(hal_gpio.o)
 .text.hal_gpio_deinit
                0x0000000000000000       0x24 /home/crepel/Documents/EPFL/bluetooth_stuff/Link_layer_security/firmware_project/bin/targets/my_blinky_nordic/app/@apache-mynewt-core/hw/mcu/nordic/nrf52xxx/@apache-mynewt-core_hw_mcu_nordic_nrf52xxx.a(hal_gpio.o)
 .text.hal_gpio_irq_init
                0x0000000000000000       0xa0 /home/crepel/Documents/EPFL/bluetooth_stuff/Link_layer_security/firmware_project/bin/targets/my_blinky_nordic/app/@apache-mynewt-core/hw/mcu/nordic/nrf52xxx/@apache-mynewt-core_hw_mcu_nordic_nrf52xxx.a(hal_gpio.o)
 .text.hal_gpio_irq_enable
                0x0000000000000000       0x38 /home/crepel/Documents/EPFL/bluetooth_stuff/Link_layer_security/firmware_project/bin/targets/my_blinky_nordic/app/@apache-mynewt-core/hw/mcu/nordic/nrf52xxx/@apache-mynewt-core_hw_mcu_nordic_nrf52xxx.a(hal_gpio.o)
 .text.hal_gpio_irq_disable
                0x0000000000000000       0x30 /home/crepel/Documents/EPFL/bluetooth_stuff/Link_layer_security/firmware_project/bin/targets/my_blinky_nordic/app/@apache-mynewt-core/hw/mcu/nordic/nrf52xxx/@apache-mynewt-core_hw_mcu_nordic_nrf52xxx.a(hal_gpio.o)
 .text.hal_gpio_irq_release
                0x0000000000000000       0x50 /home/crepel/Documents/EPFL/bluetooth_stuff/Link_layer_security/firmware_project/bin/targets/my_blinky_nordic/app/@apache-mynewt-core/hw/mcu/nordic/nrf52xxx/@apache-mynewt-core_hw_mcu_nordic_nrf52xxx.a(hal_gpio.o)
 .bss.hal_gpio_irqs
                0x0000000000000000       0x40 /home/crepel/Documents/EPFL/bluetooth_stuff/Link_layer_security/firmware_project/bin/targets/my_blinky_nordic/app/@apache-mynewt-core/hw/mcu/nordic/nrf52xxx/@apache-mynewt-core_hw_mcu_nordic_nrf52xxx.a(hal_gpio.o)
 .bss.irq_setup.8061
                0x0000000000000000        0x1 /home/crepel/Documents/EPFL/bluetooth_stuff/Link_layer_security/firmware_project/bin/targets/my_blinky_nordic/app/@apache-mynewt-core/hw/mcu/nordic/nrf52xxx/@apache-mynewt-core_hw_mcu_nordic_nrf52xxx.a(hal_gpio.o)
 .text          0x0000000000000000        0x0 /home/crepel/Documents/EPFL/bluetooth_stuff/Link_layer_security/firmware_project/bin/targets/my_blinky_nordic/app/@apache-mynewt-core/kernel/os/@apache-mynewt-core_kernel_os.a(os.o)
 .data          0x0000000000000000        0x0 /home/crepel/Documents/EPFL/bluetooth_stuff/Link_layer_security/firmware_project/bin/targets/my_blinky_nordic/app/@apache-mynewt-core/kernel/os/@apache-mynewt-core_kernel_os.a(os.o)
 .bss           0x0000000000000000        0x0 /home/crepel/Documents/EPFL/bluetooth_stuff/Link_layer_security/firmware_project/bin/targets/my_blinky_nordic/app/@apache-mynewt-core/kernel/os/@apache-mynewt-core_kernel_os.a(os.o)
 .text.os_reboot
                0x0000000000000000        0x8 /home/crepel/Documents/EPFL/bluetooth_stuff/Link_layer_security/firmware_project/bin/targets/my_blinky_nordic/app/@apache-mynewt-core/kernel/os/@apache-mynewt-core_kernel_os.a(os.o)
 .text.os_system_reset
                0x0000000000000000        0xa /home/crepel/Documents/EPFL/bluetooth_stuff/Link_layer_security/firmware_project/bin/targets/my_blinky_nordic/app/@apache-mynewt-core/kernel/os/@apache-mynewt-core_kernel_os.a(os.o)
 .text          0x0000000000000000        0x0 /home/crepel/Documents/EPFL/bluetooth_stuff/Link_layer_security/firmware_project/bin/targets/my_blinky_nordic/app/@apache-mynewt-core/kernel/os/@apache-mynewt-core_kernel_os.a(os_callout.o)
 .data          0x0000000000000000        0x0 /home/crepel/Documents/EPFL/bluetooth_stuff/Link_layer_security/firmware_project/bin/targets/my_blinky_nordic/app/@apache-mynewt-core/kernel/os/@apache-mynewt-core_kernel_os.a(os_callout.o)
 .bss           0x0000000000000000        0x0 /home/crepel/Documents/EPFL/bluetooth_stuff/Link_layer_security/firmware_project/bin/targets/my_blinky_nordic/app/@apache-mynewt-core/kernel/os/@apache-mynewt-core_kernel_os.a(os_callout.o)
 .text.os_callout_init
                0x0000000000000000       0x1a /home/crepel/Documents/EPFL/bluetooth_stuff/Link_layer_security/firmware_project/bin/targets/my_blinky_nordic/app/@apache-mynewt-core/kernel/os/@apache-mynewt-core_kernel_os.a(os_callout.o)
 .text.os_callout_stop
                0x0000000000000000       0x3c /home/crepel/Documents/EPFL/bluetooth_stuff/Link_layer_security/firmware_project/bin/targets/my_blinky_nordic/app/@apache-mynewt-core/kernel/os/@apache-mynewt-core_kernel_os.a(os_callout.o)
 .text.os_callout_reset
                0x0000000000000000       0x80 /home/crepel/Documents/EPFL/bluetooth_stuff/Link_layer_security/firmware_project/bin/targets/my_blinky_nordic/app/@apache-mynewt-core/kernel/os/@apache-mynewt-core_kernel_os.a(os_callout.o)
 .text.os_callout_remaining_ticks
                0x0000000000000000       0x1c /home/crepel/Documents/EPFL/bluetooth_stuff/Link_layer_security/firmware_project/bin/targets/my_blinky_nordic/app/@apache-mynewt-core/kernel/os/@apache-mynewt-core_kernel_os.a(os_callout.o)
 .text          0x0000000000000000        0x0 /home/crepel/Documents/EPFL/bluetooth_stuff/Link_layer_security/firmware_project/bin/targets/my_blinky_nordic/app/@apache-mynewt-core/kernel/os/@apache-mynewt-core_kernel_os.a(os_dev.o)
 .data          0x0000000000000000        0x0 /home/crepel/Documents/EPFL/bluetooth_stuff/Link_layer_security/firmware_project/bin/targets/my_blinky_nordic/app/@apache-mynewt-core/kernel/os/@apache-mynewt-core_kernel_os.a(os_dev.o)
 .bss           0x0000000000000000        0x0 /home/crepel/Documents/EPFL/bluetooth_stuff/Link_layer_security/firmware_project/bin/targets/my_blinky_nordic/app/@apache-mynewt-core/kernel/os/@apache-mynewt-core_kernel_os.a(os_dev.o)
 .text.os_dev_lookup
                0x0000000000000000       0x20 /home/crepel/Documents/EPFL/bluetooth_stuff/Link_layer_security/firmware_project/bin/targets/my_blinky_nordic/app/@apache-mynewt-core/kernel/os/@apache-mynewt-core_kernel_os.a(os_dev.o)
 .text.os_dev_open
                0x0000000000000000       0x44 /home/crepel/Documents/EPFL/bluetooth_stuff/Link_layer_security/firmware_project/bin/targets/my_blinky_nordic/app/@apache-mynewt-core/kernel/os/@apache-mynewt-core_kernel_os.a(os_dev.o)
 .text.os_dev_close
                0x0000000000000000       0x36 /home/crepel/Documents/EPFL/bluetooth_stuff/Link_layer_security/firmware_project/bin/targets/my_blinky_nordic/app/@apache-mynewt-core/kernel/os/@apache-mynewt-core_kernel_os.a(os_dev.o)
 .text.os_dev_suspend
                0x0000000000000000       0x54 /home/crepel/Documents/EPFL/bluetooth_stuff/Link_layer_security/firmware_project/bin/targets/my_blinky_nordic/app/@apache-mynewt-core/kernel/os/@apache-mynewt-core_kernel_os.a(os_dev.o)
 .text.os_dev_suspend_all
                0x0000000000000000       0x2c /home/crepel/Documents/EPFL/bluetooth_stuff/Link_layer_security/firmware_project/bin/targets/my_blinky_nordic/app/@apache-mynewt-core/kernel/os/@apache-mynewt-core_kernel_os.a(os_dev.o)
 .text.os_dev_resume
                0x0000000000000000       0x3e /home/crepel/Documents/EPFL/bluetooth_stuff/Link_layer_security/firmware_project/bin/targets/my_blinky_nordic/app/@apache-mynewt-core/kernel/os/@apache-mynewt-core_kernel_os.a(os_dev.o)
 .text.os_dev_resume_all
                0x0000000000000000       0x20 /home/crepel/Documents/EPFL/bluetooth_stuff/Link_layer_security/firmware_project/bin/targets/my_blinky_nordic/app/@apache-mynewt-core/kernel/os/@apache-mynewt-core_kernel_os.a(os_dev.o)
 .text.os_dev_walk
                0x0000000000000000       0x20 /home/crepel/Documents/EPFL/bluetooth_stuff/Link_layer_security/firmware_project/bin/targets/my_blinky_nordic/app/@apache-mynewt-core/kernel/os/@apache-mynewt-core_kernel_os.a(os_dev.o)
 .text          0x0000000000000000        0x0 /home/crepel/Documents/EPFL/bluetooth_stuff/Link_layer_security/firmware_project/bin/targets/my_blinky_nordic/app/@apache-mynewt-core/kernel/os/@apache-mynewt-core_kernel_os.a(os_eventq.o)
 .data          0x0000000000000000        0x0 /home/crepel/Documents/EPFL/bluetooth_stuff/Link_layer_security/firmware_project/bin/targets/my_blinky_nordic/app/@apache-mynewt-core/kernel/os/@apache-mynewt-core_kernel_os.a(os_eventq.o)
 .bss           0x0000000000000000        0x0 /home/crepel/Documents/EPFL/bluetooth_stuff/Link_layer_security/firmware_project/bin/targets/my_blinky_nordic/app/@apache-mynewt-core/kernel/os/@apache-mynewt-core_kernel_os.a(os_eventq.o)
 .text.os_eventq_poll_0timo
                0x0000000000000000       0x3e /home/crepel/Documents/EPFL/bluetooth_stuff/Link_layer_security/firmware_project/bin/targets/my_blinky_nordic/app/@apache-mynewt-core/kernel/os/@apache-mynewt-core_kernel_os.a(os_eventq.o)
 .text.os_eventq_get_no_wait
                0x0000000000000000       0x1a /home/crepel/Documents/EPFL/bluetooth_stuff/Link_layer_security/firmware_project/bin/targets/my_blinky_nordic/app/@apache-mynewt-core/kernel/os/@apache-mynewt-core_kernel_os.a(os_eventq.o)
 .text.os_eventq_get
                0x0000000000000000       0x82 /home/crepel/Documents/EPFL/bluetooth_stuff/Link_layer_security/firmware_project/bin/targets/my_blinky_nordic/app/@apache-mynewt-core/kernel/os/@apache-mynewt-core_kernel_os.a(os_eventq.o)
 .text.os_eventq_run
                0x0000000000000000       0x22 /home/crepel/Documents/EPFL/bluetooth_stuff/Link_layer_security/firmware_project/bin/targets/my_blinky_nordic/app/@apache-mynewt-core/kernel/os/@apache-mynewt-core_kernel_os.a(os_eventq.o)
 .text.os_eventq_poll
                0x0000000000000000       0xd0 /home/crepel/Documents/EPFL/bluetooth_stuff/Link_layer_security/firmware_project/bin/targets/my_blinky_nordic/app/@apache-mynewt-core/kernel/os/@apache-mynewt-core_kernel_os.a(os_eventq.o)
 .text.os_eventq_remove
                0x0000000000000000       0x40 /home/crepel/Documents/EPFL/bluetooth_stuff/Link_layer_security/firmware_project/bin/targets/my_blinky_nordic/app/@apache-mynewt-core/kernel/os/@apache-mynewt-core_kernel_os.a(os_eventq.o)
 .text.os_eventq_designate
                0x0000000000000000       0x38 /home/crepel/Documents/EPFL/bluetooth_stuff/Link_layer_security/firmware_project/bin/targets/my_blinky_nordic/app/@apache-mynewt-core/kernel/os/@apache-mynewt-core_kernel_os.a(os_eventq.o)
 .text          0x0000000000000000        0x0 /home/crepel/Documents/EPFL/bluetooth_stuff/Link_layer_security/firmware_project/bin/targets/my_blinky_nordic/app/@apache-mynewt-core/kernel/os/@apache-mynewt-core_kernel_os.a(os_mempool.o)
 .data          0x0000000000000000        0x0 /home/crepel/Documents/EPFL/bluetooth_stuff/Link_layer_security/firmware_project/bin/targets/my_blinky_nordic/app/@apache-mynewt-core/kernel/os/@apache-mynewt-core_kernel_os.a(os_mempool.o)
 .bss           0x0000000000000000        0x0 /home/crepel/Documents/EPFL/bluetooth_stuff/Link_layer_security/firmware_project/bin/targets/my_blinky_nordic/app/@apache-mynewt-core/kernel/os/@apache-mynewt-core_kernel_os.a(os_mempool.o)
 .text.os_mempool_ext_init
                0x0000000000000000       0x22 /home/crepel/Documents/EPFL/bluetooth_stuff/Link_layer_security/firmware_project/bin/targets/my_blinky_nordic/app/@apache-mynewt-core/kernel/os/@apache-mynewt-core_kernel_os.a(os_mempool.o)
 .text.os_mempool_unregister
                0x0000000000000000       0x48 /home/crepel/Documents/EPFL/bluetooth_stuff/Link_layer_security/firmware_project/bin/targets/my_blinky_nordic/app/@apache-mynewt-core/kernel/os/@apache-mynewt-core_kernel_os.a(os_mempool.o)
 .text.os_mempool_clear
                0x0000000000000000       0x36 /home/crepel/Documents/EPFL/bluetooth_stuff/Link_layer_security/firmware_project/bin/targets/my_blinky_nordic/app/@apache-mynewt-core/kernel/os/@apache-mynewt-core_kernel_os.a(os_mempool.o)
 .text.os_memblock_from
                0x0000000000000000       0x3e /home/crepel/Documents/EPFL/bluetooth_stuff/Link_layer_security/firmware_project/bin/targets/my_blinky_nordic/app/@apache-mynewt-core/kernel/os/@apache-mynewt-core_kernel_os.a(os_mempool.o)
 .text.os_mempool_is_sane
                0x0000000000000000       0x1e /home/crepel/Documents/EPFL/bluetooth_stuff/Link_layer_security/firmware_project/bin/targets/my_blinky_nordic/app/@apache-mynewt-core/kernel/os/@apache-mynewt-core_kernel_os.a(os_mempool.o)
 .text.os_memblock_get
                0x0000000000000000       0x32 /home/crepel/Documents/EPFL/bluetooth_stuff/Link_layer_security/firmware_project/bin/targets/my_blinky_nordic/app/@apache-mynewt-core/kernel/os/@apache-mynewt-core_kernel_os.a(os_mempool.o)
 .text.os_memblock_put_from_cb
                0x0000000000000000       0x1e /home/crepel/Documents/EPFL/bluetooth_stuff/Link_layer_security/firmware_project/bin/targets/my_blinky_nordic/app/@apache-mynewt-core/kernel/os/@apache-mynewt-core_kernel_os.a(os_mempool.o)
 .text.os_memblock_put
                0x0000000000000000       0x26 /home/crepel/Documents/EPFL/bluetooth_stuff/Link_layer_security/firmware_project/bin/targets/my_blinky_nordic/app/@apache-mynewt-core/kernel/os/@apache-mynewt-core_kernel_os.a(os_mempool.o)
 .text.os_mempool_info_get_next
                0x0000000000000000       0x38 /home/crepel/Documents/EPFL/bluetooth_stuff/Link_layer_security/firmware_project/bin/targets/my_blinky_nordic/app/@apache-mynewt-core/kernel/os/@apache-mynewt-core_kernel_os.a(os_mempool.o)
 .text          0x0000000000000000        0x0 /home/crepel/Documents/EPFL/bluetooth_stuff/Link_layer_security/firmware_project/bin/targets/my_blinky_nordic/app/@apache-mynewt-core/kernel/os/@apache-mynewt-core_kernel_os.a(os_msys.o)
 .data          0x0000000000000000        0x0 /home/crepel/Documents/EPFL/bluetooth_stuff/Link_layer_security/firmware_project/bin/targets/my_blinky_nordic/app/@apache-mynewt-core/kernel/os/@apache-mynewt-core_kernel_os.a(os_msys.o)
 .bss           0x0000000000000000        0x0 /home/crepel/Documents/EPFL/bluetooth_stuff/Link_layer_security/firmware_project/bin/targets/my_blinky_nordic/app/@apache-mynewt-core/kernel/os/@apache-mynewt-core_kernel_os.a(os_msys.o)
 .text.os_msys_find_biggest_pool
                0x0000000000000000       0x10 /home/crepel/Documents/EPFL/bluetooth_stuff/Link_layer_security/firmware_project/bin/targets/my_blinky_nordic/app/@apache-mynewt-core/kernel/os/@apache-mynewt-core_kernel_os.a(os_msys.o)
 .text.os_msys_find_pool
                0x0000000000000000       0x2c /home/crepel/Documents/EPFL/bluetooth_stuff/Link_layer_security/firmware_project/bin/targets/my_blinky_nordic/app/@apache-mynewt-core/kernel/os/@apache-mynewt-core_kernel_os.a(os_msys.o)
 .text.os_msys_get
                0x0000000000000000       0x1e /home/crepel/Documents/EPFL/bluetooth_stuff/Link_layer_security/firmware_project/bin/targets/my_blinky_nordic/app/@apache-mynewt-core/kernel/os/@apache-mynewt-core_kernel_os.a(os_msys.o)
 .text.os_msys_get_pkthdr
                0x0000000000000000       0x28 /home/crepel/Documents/EPFL/bluetooth_stuff/Link_layer_security/firmware_project/bin/targets/my_blinky_nordic/app/@apache-mynewt-core/kernel/os/@apache-mynewt-core_kernel_os.a(os_msys.o)
 .text.os_msys_count
                0x0000000000000000       0x1c /home/crepel/Documents/EPFL/bluetooth_stuff/Link_layer_security/firmware_project/bin/targets/my_blinky_nordic/app/@apache-mynewt-core/kernel/os/@apache-mynewt-core_kernel_os.a(os_msys.o)
 .text.os_msys_num_free
                0x0000000000000000       0x1c /home/crepel/Documents/EPFL/bluetooth_stuff/Link_layer_security/firmware_project/bin/targets/my_blinky_nordic/app/@apache-mynewt-core/kernel/os/@apache-mynewt-core_kernel_os.a(os_msys.o)
 .text          0x0000000000000000        0x0 /home/crepel/Documents/EPFL/bluetooth_stuff/Link_layer_security/firmware_project/bin/targets/my_blinky_nordic/app/@apache-mynewt-core/kernel/os/@apache-mynewt-core_kernel_os.a(os_sanity.o)
 .data          0x0000000000000000        0x0 /home/crepel/Documents/EPFL/bluetooth_stuff/Link_layer_security/firmware_project/bin/targets/my_blinky_nordic/app/@apache-mynewt-core/kernel/os/@apache-mynewt-core_kernel_os.a(os_sanity.o)
 .bss           0x0000000000000000        0x0 /home/crepel/Documents/EPFL/bluetooth_stuff/Link_layer_security/firmware_project/bin/targets/my_blinky_nordic/app/@apache-mynewt-core/kernel/os/@apache-mynewt-core_kernel_os.a(os_sanity.o)
 .text.os_sanity_check_reset
                0x0000000000000000       0x1e /home/crepel/Documents/EPFL/bluetooth_stuff/Link_layer_security/firmware_project/bin/targets/my_blinky_nordic/app/@apache-mynewt-core/kernel/os/@apache-mynewt-core_kernel_os.a(os_sanity.o)
 .text.os_sanity_task_checkin
                0x0000000000000000       0x18 /home/crepel/Documents/EPFL/bluetooth_stuff/Link_layer_security/firmware_project/bin/targets/my_blinky_nordic/app/@apache-mynewt-core/kernel/os/@apache-mynewt-core_kernel_os.a(os_sanity.o)
 .text          0x0000000000000000        0x0 /home/crepel/Documents/EPFL/bluetooth_stuff/Link_layer_security/firmware_project/bin/targets/my_blinky_nordic/app/@apache-mynewt-core/kernel/os/@apache-mynewt-core_kernel_os.a(os_sched.o)
 .data          0x0000000000000000        0x0 /home/crepel/Documents/EPFL/bluetooth_stuff/Link_layer_security/firmware_project/bin/targets/my_blinky_nordic/app/@apache-mynewt-core/kernel/os/@apache-mynewt-core_kernel_os.a(os_sched.o)
 .bss           0x0000000000000000        0x0 /home/crepel/Documents/EPFL/bluetooth_stuff/Link_layer_security/firmware_project/bin/targets/my_blinky_nordic/app/@apache-mynewt-core/kernel/os/@apache-mynewt-core_kernel_os.a(os_sched.o)
 .text.os_sched_remove
                0x0000000000000000       0x84 /home/crepel/Documents/EPFL/bluetooth_stuff/Link_layer_security/firmware_project/bin/targets/my_blinky_nordic/app/@apache-mynewt-core/kernel/os/@apache-mynewt-core_kernel_os.a(os_sched.o)
 .text          0x0000000000000000        0x0 /home/crepel/Documents/EPFL/bluetooth_stuff/Link_layer_security/firmware_project/bin/targets/my_blinky_nordic/app/@apache-mynewt-core/kernel/os/@apache-mynewt-core_kernel_os.a(os_task.o)
 .data          0x0000000000000000        0x0 /home/crepel/Documents/EPFL/bluetooth_stuff/Link_layer_security/firmware_project/bin/targets/my_blinky_nordic/app/@apache-mynewt-core/kernel/os/@apache-mynewt-core_kernel_os.a(os_task.o)
 .bss           0x0000000000000000        0x0 /home/crepel/Documents/EPFL/bluetooth_stuff/Link_layer_security/firmware_project/bin/targets/my_blinky_nordic/app/@apache-mynewt-core/kernel/os/@apache-mynewt-core_kernel_os.a(os_task.o)
 .text.os_task_count
                0x0000000000000000        0xc /home/crepel/Documents/EPFL/bluetooth_stuff/Link_layer_security/firmware_project/bin/targets/my_blinky_nordic/app/@apache-mynewt-core/kernel/os/@apache-mynewt-core_kernel_os.a(os_task.o)
 .text.os_task_remove
                0x0000000000000000       0x4a /home/crepel/Documents/EPFL/bluetooth_stuff/Link_layer_security/firmware_project/bin/targets/my_blinky_nordic/app/@apache-mynewt-core/kernel/os/@apache-mynewt-core_kernel_os.a(os_task.o)
 .text.os_task_info_get
                0x0000000000000000       0x60 /home/crepel/Documents/EPFL/bluetooth_stuff/Link_layer_security/firmware_project/bin/targets/my_blinky_nordic/app/@apache-mynewt-core/kernel/os/@apache-mynewt-core_kernel_os.a(os_task.o)
 .text.os_task_info_get_next
                0x0000000000000000       0x1c /home/crepel/Documents/EPFL/bluetooth_stuff/Link_layer_security/firmware_project/bin/targets/my_blinky_nordic/app/@apache-mynewt-core/kernel/os/@apache-mynewt-core_kernel_os.a(os_task.o)
 .text          0x0000000000000000        0x0 /home/crepel/Documents/EPFL/bluetooth_stuff/Link_layer_security/firmware_project/bin/targets/my_blinky_nordic/app/@apache-mynewt-core/kernel/os/@apache-mynewt-core_kernel_os.a(os_time.o)
 .data          0x0000000000000000        0x0 /home/crepel/Documents/EPFL/bluetooth_stuff/Link_layer_security/firmware_project/bin/targets/my_blinky_nordic/app/@apache-mynewt-core/kernel/os/@apache-mynewt-core_kernel_os.a(os_time.o)
 .bss           0x0000000000000000        0x0 /home/crepel/Documents/EPFL/bluetooth_stuff/Link_layer_security/firmware_project/bin/targets/my_blinky_nordic/app/@apache-mynewt-core/kernel/os/@apache-mynewt-core_kernel_os.a(os_time.o)
 .text.os_time_change_listener_find
                0x0000000000000000       0x2c /home/crepel/Documents/EPFL/bluetooth_stuff/Link_layer_security/firmware_project/bin/targets/my_blinky_nordic/app/@apache-mynewt-core/kernel/os/@apache-mynewt-core_kernel_os.a(os_time.o)
 .text.os_time_change_notify
                0x0000000000000000       0x20 /home/crepel/Documents/EPFL/bluetooth_stuff/Link_layer_security/firmware_project/bin/targets/my_blinky_nordic/app/@apache-mynewt-core/kernel/os/@apache-mynewt-core_kernel_os.a(os_time.o)
 .text.os_time_change_listen
                0x0000000000000000       0x14 /home/crepel/Documents/EPFL/bluetooth_stuff/Link_layer_security/firmware_project/bin/targets/my_blinky_nordic/app/@apache-mynewt-core/kernel/os/@apache-mynewt-core_kernel_os.a(os_time.o)
 .text.os_time_change_remove
                0x0000000000000000       0x34 /home/crepel/Documents/EPFL/bluetooth_stuff/Link_layer_security/firmware_project/bin/targets/my_blinky_nordic/app/@apache-mynewt-core/kernel/os/@apache-mynewt-core_kernel_os.a(os_time.o)
 .text.os_gettimeofday
                0x0000000000000000       0x38 /home/crepel/Documents/EPFL/bluetooth_stuff/Link_layer_security/firmware_project/bin/targets/my_blinky_nordic/app/@apache-mynewt-core/kernel/os/@apache-mynewt-core_kernel_os.a(os_time.o)
 .text.os_time_is_set
                0x0000000000000000       0x18 /home/crepel/Documents/EPFL/bluetooth_stuff/Link_layer_security/firmware_project/bin/targets/my_blinky_nordic/app/@apache-mynewt-core/kernel/os/@apache-mynewt-core_kernel_os.a(os_time.o)
 .text.os_time_populate_info
                0x0000000000000000       0x48 /home/crepel/Documents/EPFL/bluetooth_stuff/Link_layer_security/firmware_project/bin/targets/my_blinky_nordic/app/@apache-mynewt-core/kernel/os/@apache-mynewt-core_kernel_os.a(os_time.o)
 .text.os_settimeofday
                0x0000000000000000       0x70 /home/crepel/Documents/EPFL/bluetooth_stuff/Link_layer_security/firmware_project/bin/targets/my_blinky_nordic/app/@apache-mynewt-core/kernel/os/@apache-mynewt-core_kernel_os.a(os_time.o)
 .text.os_get_uptime
                0x0000000000000000       0x3c /home/crepel/Documents/EPFL/bluetooth_stuff/Link_layer_security/firmware_project/bin/targets/my_blinky_nordic/app/@apache-mynewt-core/kernel/os/@apache-mynewt-core_kernel_os.a(os_time.o)
 .text.os_get_uptime_usec
                0x0000000000000000       0x4e /home/crepel/Documents/EPFL/bluetooth_stuff/Link_layer_security/firmware_project/bin/targets/my_blinky_nordic/app/@apache-mynewt-core/kernel/os/@apache-mynewt-core_kernel_os.a(os_time.o)
 .text.os_time_ms_to_ticks
                0x0000000000000000       0x26 /home/crepel/Documents/EPFL/bluetooth_stuff/Link_layer_security/firmware_project/bin/targets/my_blinky_nordic/app/@apache-mynewt-core/kernel/os/@apache-mynewt-core_kernel_os.a(os_time.o)
 .text.os_time_ticks_to_ms
                0x0000000000000000       0x4a /home/crepel/Documents/EPFL/bluetooth_stuff/Link_layer_security/firmware_project/bin/targets/my_blinky_nordic/app/@apache-mynewt-core/kernel/os/@apache-mynewt-core_kernel_os.a(os_time.o)
 .data.os_time_change_listeners
                0x0000000000000000        0x8 /home/crepel/Documents/EPFL/bluetooth_stuff/Link_layer_security/firmware_project/bin/targets/my_blinky_nordic/app/@apache-mynewt-core/kernel/os/@apache-mynewt-core_kernel_os.a(os_time.o)
 .text          0x0000000000000000        0x0 /home/crepel/Documents/EPFL/bluetooth_stuff/Link_layer_security/firmware_project/bin/targets/my_blinky_nordic/app/@apache-mynewt-core/kernel/os/@apache-mynewt-core_kernel_os.a(os_arch_arm.o)
 .data          0x0000000000000000        0x0 /home/crepel/Documents/EPFL/bluetooth_stuff/Link_layer_security/firmware_project/bin/targets/my_blinky_nordic/app/@apache-mynewt-core/kernel/os/@apache-mynewt-core_kernel_os.a(os_arch_arm.o)
 .bss           0x0000000000000000        0x0 /home/crepel/Documents/EPFL/bluetooth_stuff/Link_layer_security/firmware_project/bin/targets/my_blinky_nordic/app/@apache-mynewt-core/kernel/os/@apache-mynewt-core_kernel_os.a(os_arch_arm.o)
 .text          0x0000000000000000        0x0 /home/crepel/Documents/EPFL/bluetooth_stuff/Link_layer_security/firmware_project/bin/targets/my_blinky_nordic/app/@apache-mynewt-core/kernel/os/@apache-mynewt-core_kernel_os.a(os_fault.o)
 .data          0x0000000000000000        0x0 /home/crepel/Documents/EPFL/bluetooth_stuff/Link_layer_security/firmware_project/bin/targets/my_blinky_nordic/app/@apache-mynewt-core/kernel/os/@apache-mynewt-core_kernel_os.a(os_fault.o)
 .bss           0x0000000000000000        0x0 /home/crepel/Documents/EPFL/bluetooth_stuff/Link_layer_security/firmware_project/bin/targets/my_blinky_nordic/app/@apache-mynewt-core/kernel/os/@apache-mynewt-core_kernel_os.a(os_fault.o)
 .text          0x0000000000000000        0x0 /home/crepel/Documents/EPFL/bluetooth_stuff/Link_layer_security/firmware_project/bin/targets/my_blinky_nordic/app/@apache-mynewt-core/kernel/os/@apache-mynewt-core_kernel_os.a(os_mbuf.o)
 .data          0x0000000000000000        0x0 /home/crepel/Documents/EPFL/bluetooth_stuff/Link_layer_security/firmware_project/bin/targets/my_blinky_nordic/app/@apache-mynewt-core/kernel/os/@apache-mynewt-core_kernel_os.a(os_mbuf.o)
 .bss           0x0000000000000000        0x0 /home/crepel/Documents/EPFL/bluetooth_stuff/Link_layer_security/firmware_project/bin/targets/my_blinky_nordic/app/@apache-mynewt-core/kernel/os/@apache-mynewt-core_kernel_os.a(os_mbuf.o)
 .text.os_mqueue_init
                0x0000000000000000       0x12 /home/crepel/Documents/EPFL/bluetooth_stuff/Link_layer_security/firmware_project/bin/targets/my_blinky_nordic/app/@apache-mynewt-core/kernel/os/@apache-mynewt-core_kernel_os.a(os_mbuf.o)
 .text.os_mqueue_get
                0x0000000000000000       0x26 /home/crepel/Documents/EPFL/bluetooth_stuff/Link_layer_security/firmware_project/bin/targets/my_blinky_nordic/app/@apache-mynewt-core/kernel/os/@apache-mynewt-core_kernel_os.a(os_mbuf.o)
 .text.os_mqueue_put
                0x0000000000000000       0x3e /home/crepel/Documents/EPFL/bluetooth_stuff/Link_layer_security/firmware_project/bin/targets/my_blinky_nordic/app/@apache-mynewt-core/kernel/os/@apache-mynewt-core_kernel_os.a(os_mbuf.o)
 .text.os_mbuf_get
                0x0000000000000000       0x32 /home/crepel/Documents/EPFL/bluetooth_stuff/Link_layer_security/firmware_project/bin/targets/my_blinky_nordic/app/@apache-mynewt-core/kernel/os/@apache-mynewt-core_kernel_os.a(os_mbuf.o)
 .text.os_mbuf_get_pkthdr
                0x0000000000000000       0x36 /home/crepel/Documents/EPFL/bluetooth_stuff/Link_layer_security/firmware_project/bin/targets/my_blinky_nordic/app/@apache-mynewt-core/kernel/os/@apache-mynewt-core_kernel_os.a(os_mbuf.o)
 .text.os_mbuf_free
                0x0000000000000000       0x14 /home/crepel/Documents/EPFL/bluetooth_stuff/Link_layer_security/firmware_project/bin/targets/my_blinky_nordic/app/@apache-mynewt-core/kernel/os/@apache-mynewt-core_kernel_os.a(os_mbuf.o)
 .text.os_mbuf_free_chain
                0x0000000000000000       0x24 /home/crepel/Documents/EPFL/bluetooth_stuff/Link_layer_security/firmware_project/bin/targets/my_blinky_nordic/app/@apache-mynewt-core/kernel/os/@apache-mynewt-core_kernel_os.a(os_mbuf.o)
 .text.os_mbuf_len
                0x0000000000000000       0x14 /home/crepel/Documents/EPFL/bluetooth_stuff/Link_layer_security/firmware_project/bin/targets/my_blinky_nordic/app/@apache-mynewt-core/kernel/os/@apache-mynewt-core_kernel_os.a(os_mbuf.o)
 .text.os_mbuf_append
                0x0000000000000000       0xa8 /home/crepel/Documents/EPFL/bluetooth_stuff/Link_layer_security/firmware_project/bin/targets/my_blinky_nordic/app/@apache-mynewt-core/kernel/os/@apache-mynewt-core_kernel_os.a(os_mbuf.o)
 .text.os_mbuf_dup
                0x0000000000000000       0xc0 /home/crepel/Documents/EPFL/bluetooth_stuff/Link_layer_security/firmware_project/bin/targets/my_blinky_nordic/app/@apache-mynewt-core/kernel/os/@apache-mynewt-core_kernel_os.a(os_mbuf.o)
 .text.os_mbuf_off
                0x0000000000000000       0x22 /home/crepel/Documents/EPFL/bluetooth_stuff/Link_layer_security/firmware_project/bin/targets/my_blinky_nordic/app/@apache-mynewt-core/kernel/os/@apache-mynewt-core_kernel_os.a(os_mbuf.o)
 .text.os_mbuf_appendfrom
                0x0000000000000000       0x54 /home/crepel/Documents/EPFL/bluetooth_stuff/Link_layer_security/firmware_project/bin/targets/my_blinky_nordic/app/@apache-mynewt-core/kernel/os/@apache-mynewt-core_kernel_os.a(os_mbuf.o)
 .text.os_mbuf_copydata
                0x0000000000000000       0x5a /home/crepel/Documents/EPFL/bluetooth_stuff/Link_layer_security/firmware_project/bin/targets/my_blinky_nordic/app/@apache-mynewt-core/kernel/os/@apache-mynewt-core_kernel_os.a(os_mbuf.o)
 .text.os_mbuf_adj
                0x0000000000000000       0xa4 /home/crepel/Documents/EPFL/bluetooth_stuff/Link_layer_security/firmware_project/bin/targets/my_blinky_nordic/app/@apache-mynewt-core/kernel/os/@apache-mynewt-core_kernel_os.a(os_mbuf.o)
 .text.os_mbuf_cmpf
                0x0000000000000000       0x7a /home/crepel/Documents/EPFL/bluetooth_stuff/Link_layer_security/firmware_project/bin/targets/my_blinky_nordic/app/@apache-mynewt-core/kernel/os/@apache-mynewt-core_kernel_os.a(os_mbuf.o)
 .text.os_mbuf_cmpm
                0x0000000000000000       0xc0 /home/crepel/Documents/EPFL/bluetooth_stuff/Link_layer_security/firmware_project/bin/targets/my_blinky_nordic/app/@apache-mynewt-core/kernel/os/@apache-mynewt-core_kernel_os.a(os_mbuf.o)
 .text.os_mbuf_prepend
                0x0000000000000000       0xc6 /home/crepel/Documents/EPFL/bluetooth_stuff/Link_layer_security/firmware_project/bin/targets/my_blinky_nordic/app/@apache-mynewt-core/kernel/os/@apache-mynewt-core_kernel_os.a(os_mbuf.o)
 .text.os_mbuf_copyinto
                0x0000000000000000       0x88 /home/crepel/Documents/EPFL/bluetooth_stuff/Link_layer_security/firmware_project/bin/targets/my_blinky_nordic/app/@apache-mynewt-core/kernel/os/@apache-mynewt-core_kernel_os.a(os_mbuf.o)
 .text.os_mbuf_concat
                0x0000000000000000       0x44 /home/crepel/Documents/EPFL/bluetooth_stuff/Link_layer_security/firmware_project/bin/targets/my_blinky_nordic/app/@apache-mynewt-core/kernel/os/@apache-mynewt-core_kernel_os.a(os_mbuf.o)
 .text.os_mbuf_extend
                0x0000000000000000       0x62 /home/crepel/Documents/EPFL/bluetooth_stuff/Link_layer_security/firmware_project/bin/targets/my_blinky_nordic/app/@apache-mynewt-core/kernel/os/@apache-mynewt-core_kernel_os.a(os_mbuf.o)
 .text.os_mbuf_pullup
                0x0000000000000000      0x10a /home/crepel/Documents/EPFL/bluetooth_stuff/Link_layer_security/firmware_project/bin/targets/my_blinky_nordic/app/@apache-mynewt-core/kernel/os/@apache-mynewt-core_kernel_os.a(os_mbuf.o)
 .text.os_mbuf_prepend_pullup
                0x0000000000000000       0x18 /home/crepel/Documents/EPFL/bluetooth_stuff/Link_layer_security/firmware_project/bin/targets/my_blinky_nordic/app/@apache-mynewt-core/kernel/os/@apache-mynewt-core_kernel_os.a(os_mbuf.o)
 .text.os_mbuf_trim_front
                0x0000000000000000       0x58 /home/crepel/Documents/EPFL/bluetooth_stuff/Link_layer_security/firmware_project/bin/targets/my_blinky_nordic/app/@apache-mynewt-core/kernel/os/@apache-mynewt-core_kernel_os.a(os_mbuf.o)
 .text.os_mbuf_widen
                0x0000000000000000      0x104 /home/crepel/Documents/EPFL/bluetooth_stuff/Link_layer_security/firmware_project/bin/targets/my_blinky_nordic/app/@apache-mynewt-core/kernel/os/@apache-mynewt-core_kernel_os.a(os_mbuf.o)
 .text.os_mbuf_pack_chains
                0x0000000000000000       0xae /home/crepel/Documents/EPFL/bluetooth_stuff/Link_layer_security/firmware_project/bin/targets/my_blinky_nordic/app/@apache-mynewt-core/kernel/os/@apache-mynewt-core_kernel_os.a(os_mbuf.o)
 .text          0x0000000000000000        0x0 /home/crepel/Documents/EPFL/bluetooth_stuff/Link_layer_security/firmware_project/bin/targets/my_blinky_nordic/app/@apache-mynewt-core/kernel/os/@apache-mynewt-core_kernel_os.a(os_mutex.o)
 .data          0x0000000000000000        0x0 /home/crepel/Documents/EPFL/bluetooth_stuff/Link_layer_security/firmware_project/bin/targets/my_blinky_nordic/app/@apache-mynewt-core/kernel/os/@apache-mynewt-core_kernel_os.a(os_mutex.o)
 .bss           0x0000000000000000        0x0 /home/crepel/Documents/EPFL/bluetooth_stuff/Link_layer_security/firmware_project/bin/targets/my_blinky_nordic/app/@apache-mynewt-core/kernel/os/@apache-mynewt-core_kernel_os.a(os_mutex.o)
 .bss           0x0000000000000000        0x0 /home/crepel/Documents/EPFL/bluetooth_stuff/Link_layer_security/firmware_project/bin/targets/my_blinky_nordic/app/@apache-mynewt-core/kernel/os/@apache-mynewt-core_kernel_os.a(HAL_CM4.o)
 .ARM.extab     0x0000000000000000        0x0 /home/crepel/Documents/EPFL/bluetooth_stuff/Link_layer_security/firmware_project/bin/targets/my_blinky_nordic/app/@apache-mynewt-core/kernel/os/@apache-mynewt-core_kernel_os.a(HAL_CM4.o)
 .text          0x0000000000000000        0x0 /home/crepel/Documents/EPFL/bluetooth_stuff/Link_layer_security/firmware_project/bin/targets/my_blinky_nordic/app/@apache-mynewt-core/kernel/os/@apache-mynewt-core_kernel_os.a(SVC_Table.o)
 .data          0x0000000000000000        0x0 /home/crepel/Documents/EPFL/bluetooth_stuff/Link_layer_security/firmware_project/bin/targets/my_blinky_nordic/app/@apache-mynewt-core/kernel/os/@apache-mynewt-core_kernel_os.a(SVC_Table.o)
 .bss           0x0000000000000000        0x0 /home/crepel/Documents/EPFL/bluetooth_stuff/Link_layer_security/firmware_project/bin/targets/my_blinky_nordic/app/@apache-mynewt-core/kernel/os/@apache-mynewt-core_kernel_os.a(SVC_Table.o)
 .ARM.attributes
                0x0000000000000000       0x21 /home/crepel/Documents/EPFL/bluetooth_stuff/Link_layer_security/firmware_project/bin/targets/my_blinky_nordic/app/@apache-mynewt-core/kernel/os/@apache-mynewt-core_kernel_os.a(SVC_Table.o)
 .text          0x0000000000000000        0x0 /home/crepel/Documents/EPFL/bluetooth_stuff/Link_layer_security/firmware_project/bin/targets/my_blinky_nordic/app/@apache-mynewt-core/libc/baselibc/@apache-mynewt-core_libc_baselibc.a(memcmp.o)
 .data          0x0000000000000000        0x0 /home/crepel/Documents/EPFL/bluetooth_stuff/Link_layer_security/firmware_project/bin/targets/my_blinky_nordic/app/@apache-mynewt-core/libc/baselibc/@apache-mynewt-core_libc_baselibc.a(memcmp.o)
 .bss           0x0000000000000000        0x0 /home/crepel/Documents/EPFL/bluetooth_stuff/Link_layer_security/firmware_project/bin/targets/my_blinky_nordic/app/@apache-mynewt-core/libc/baselibc/@apache-mynewt-core_libc_baselibc.a(memcmp.o)
 .text.memcmp   0x0000000000000000       0x48 /home/crepel/Documents/EPFL/bluetooth_stuff/Link_layer_security/firmware_project/bin/targets/my_blinky_nordic/app/@apache-mynewt-core/libc/baselibc/@apache-mynewt-core_libc_baselibc.a(memcmp.o)
 .debug_info    0x0000000000000000       0xa0 /home/crepel/Documents/EPFL/bluetooth_stuff/Link_layer_security/firmware_project/bin/targets/my_blinky_nordic/app/@apache-mynewt-core/libc/baselibc/@apache-mynewt-core_libc_baselibc.a(memcmp.o)
 .debug_abbrev  0x0000000000000000       0x8e /home/crepel/Documents/EPFL/bluetooth_stuff/Link_layer_security/firmware_project/bin/targets/my_blinky_nordic/app/@apache-mynewt-core/libc/baselibc/@apache-mynewt-core_libc_baselibc.a(memcmp.o)
 .debug_loc     0x0000000000000000       0x40 /home/crepel/Documents/EPFL/bluetooth_stuff/Link_layer_security/firmware_project/bin/targets/my_blinky_nordic/app/@apache-mynewt-core/libc/baselibc/@apache-mynewt-core_libc_baselibc.a(memcmp.o)
 .debug_aranges
                0x0000000000000000       0x20 /home/crepel/Documents/EPFL/bluetooth_stuff/Link_layer_security/firmware_project/bin/targets/my_blinky_nordic/app/@apache-mynewt-core/libc/baselibc/@apache-mynewt-core_libc_baselibc.a(memcmp.o)
 .debug_ranges  0x0000000000000000       0x10 /home/crepel/Documents/EPFL/bluetooth_stuff/Link_layer_security/firmware_project/bin/targets/my_blinky_nordic/app/@apache-mynewt-core/libc/baselibc/@apache-mynewt-core_libc_baselibc.a(memcmp.o)
 .debug_line    0x0000000000000000       0x9c /home/crepel/Documents/EPFL/bluetooth_stuff/Link_layer_security/firmware_project/bin/targets/my_blinky_nordic/app/@apache-mynewt-core/libc/baselibc/@apache-mynewt-core_libc_baselibc.a(memcmp.o)
 .debug_str     0x0000000000000000      0x16b /home/crepel/Documents/EPFL/bluetooth_stuff/Link_layer_security/firmware_project/bin/targets/my_blinky_nordic/app/@apache-mynewt-core/libc/baselibc/@apache-mynewt-core_libc_baselibc.a(memcmp.o)
 .comment       0x0000000000000000       0x80 /home/crepel/Documents/EPFL/bluetooth_stuff/Link_layer_security/firmware_project/bin/targets/my_blinky_nordic/app/@apache-mynewt-core/libc/baselibc/@apache-mynewt-core_libc_baselibc.a(memcmp.o)
 .debug_frame   0x0000000000000000       0x20 /home/crepel/Documents/EPFL/bluetooth_stuff/Link_layer_security/firmware_project/bin/targets/my_blinky_nordic/app/@apache-mynewt-core/libc/baselibc/@apache-mynewt-core_libc_baselibc.a(memcmp.o)
 .ARM.attributes
                0x0000000000000000       0x33 /home/crepel/Documents/EPFL/bluetooth_stuff/Link_layer_security/firmware_project/bin/targets/my_blinky_nordic/app/@apache-mynewt-core/libc/baselibc/@apache-mynewt-core_libc_baselibc.a(memcmp.o)
 .text          0x0000000000000000        0x0 /home/crepel/Documents/EPFL/bluetooth_stuff/Link_layer_security/firmware_project/bin/targets/my_blinky_nordic/app/@apache-mynewt-core/libc/baselibc/@apache-mynewt-core_libc_baselibc.a(memcpy.o)
 .data          0x0000000000000000        0x0 /home/crepel/Documents/EPFL/bluetooth_stuff/Link_layer_security/firmware_project/bin/targets/my_blinky_nordic/app/@apache-mynewt-core/libc/baselibc/@apache-mynewt-core_libc_baselibc.a(memcpy.o)
 .bss           0x0000000000000000        0x0 /home/crepel/Documents/EPFL/bluetooth_stuff/Link_layer_security/firmware_project/bin/targets/my_blinky_nordic/app/@apache-mynewt-core/libc/baselibc/@apache-mynewt-core_libc_baselibc.a(memcpy.o)
 .text          0x0000000000000000        0x0 /home/crepel/Documents/EPFL/bluetooth_stuff/Link_layer_security/firmware_project/bin/targets/my_blinky_nordic/app/@apache-mynewt-core/libc/baselibc/@apache-mynewt-core_libc_baselibc.a(memmove.o)
 .data          0x0000000000000000        0x0 /home/crepel/Documents/EPFL/bluetooth_stuff/Link_layer_security/firmware_project/bin/targets/my_blinky_nordic/app/@apache-mynewt-core/libc/baselibc/@apache-mynewt-core_libc_baselibc.a(memmove.o)
 .bss           0x0000000000000000        0x0 /home/crepel/Documents/EPFL/bluetooth_stuff/Link_layer_security/firmware_project/bin/targets/my_blinky_nordic/app/@apache-mynewt-core/libc/baselibc/@apache-mynewt-core_libc_baselibc.a(memmove.o)
 .text.memmove  0x0000000000000000       0x36 /home/crepel/Documents/EPFL/bluetooth_stuff/Link_layer_security/firmware_project/bin/targets/my_blinky_nordic/app/@apache-mynewt-core/libc/baselibc/@apache-mynewt-core_libc_baselibc.a(memmove.o)
 .debug_info    0x0000000000000000       0xcb /home/crepel/Documents/EPFL/bluetooth_stuff/Link_layer_security/firmware_project/bin/targets/my_blinky_nordic/app/@apache-mynewt-core/libc/baselibc/@apache-mynewt-core_libc_baselibc.a(memmove.o)
 .debug_abbrev  0x0000000000000000       0x9c /home/crepel/Documents/EPFL/bluetooth_stuff/Link_layer_security/firmware_project/bin/targets/my_blinky_nordic/app/@apache-mynewt-core/libc/baselibc/@apache-mynewt-core_libc_baselibc.a(memmove.o)
 .debug_loc     0x0000000000000000      0x141 /home/crepel/Documents/EPFL/bluetooth_stuff/Link_layer_security/firmware_project/bin/targets/my_blinky_nordic/app/@apache-mynewt-core/libc/baselibc/@apache-mynewt-core_libc_baselibc.a(memmove.o)
 .debug_aranges
                0x0000000000000000       0x20 /home/crepel/Documents/EPFL/bluetooth_stuff/Link_layer_security/firmware_project/bin/targets/my_blinky_nordic/app/@apache-mynewt-core/libc/baselibc/@apache-mynewt-core_libc_baselibc.a(memmove.o)
 .debug_ranges  0x0000000000000000       0x10 /home/crepel/Documents/EPFL/bluetooth_stuff/Link_layer_security/firmware_project/bin/targets/my_blinky_nordic/app/@apache-mynewt-core/libc/baselibc/@apache-mynewt-core_libc_baselibc.a(memmove.o)
 .debug_line    0x0000000000000000       0xa9 /home/crepel/Documents/EPFL/bluetooth_stuff/Link_layer_security/firmware_project/bin/targets/my_blinky_nordic/app/@apache-mynewt-core/libc/baselibc/@apache-mynewt-core_libc_baselibc.a(memmove.o)
 .debug_str     0x0000000000000000      0x172 /home/crepel/Documents/EPFL/bluetooth_stuff/Link_layer_security/firmware_project/bin/targets/my_blinky_nordic/app/@apache-mynewt-core/libc/baselibc/@apache-mynewt-core_libc_baselibc.a(memmove.o)
 .comment       0x0000000000000000       0x80 /home/crepel/Documents/EPFL/bluetooth_stuff/Link_layer_security/firmware_project/bin/targets/my_blinky_nordic/app/@apache-mynewt-core/libc/baselibc/@apache-mynewt-core_libc_baselibc.a(memmove.o)
 .debug_frame   0x0000000000000000       0x2c /home/crepel/Documents/EPFL/bluetooth_stuff/Link_layer_security/firmware_project/bin/targets/my_blinky_nordic/app/@apache-mynewt-core/libc/baselibc/@apache-mynewt-core_libc_baselibc.a(memmove.o)
 .ARM.attributes
                0x0000000000000000       0x33 /home/crepel/Documents/EPFL/bluetooth_stuff/Link_layer_security/firmware_project/bin/targets/my_blinky_nordic/app/@apache-mynewt-core/libc/baselibc/@apache-mynewt-core_libc_baselibc.a(memmove.o)
 .text          0x0000000000000000        0x0 /home/crepel/Documents/EPFL/bluetooth_stuff/Link_layer_security/firmware_project/bin/targets/my_blinky_nordic/app/@apache-mynewt-core/libc/baselibc/@apache-mynewt-core_libc_baselibc.a(memset.o)
 .data          0x0000000000000000        0x0 /home/crepel/Documents/EPFL/bluetooth_stuff/Link_layer_security/firmware_project/bin/targets/my_blinky_nordic/app/@apache-mynewt-core/libc/baselibc/@apache-mynewt-core_libc_baselibc.a(memset.o)
 .bss           0x0000000000000000        0x0 /home/crepel/Documents/EPFL/bluetooth_stuff/Link_layer_security/firmware_project/bin/targets/my_blinky_nordic/app/@apache-mynewt-core/libc/baselibc/@apache-mynewt-core_libc_baselibc.a(memset.o)
 .text          0x0000000000000000        0x0 /home/crepel/Documents/EPFL/bluetooth_stuff/Link_layer_security/firmware_project/bin/targets/my_blinky_nordic/app/@apache-mynewt-core/libc/baselibc/@apache-mynewt-core_libc_baselibc.a(strcmp.o)
 .data          0x0000000000000000        0x0 /home/crepel/Documents/EPFL/bluetooth_stuff/Link_layer_security/firmware_project/bin/targets/my_blinky_nordic/app/@apache-mynewt-core/libc/baselibc/@apache-mynewt-core_libc_baselibc.a(strcmp.o)
 .bss           0x0000000000000000        0x0 /home/crepel/Documents/EPFL/bluetooth_stuff/Link_layer_security/firmware_project/bin/targets/my_blinky_nordic/app/@apache-mynewt-core/libc/baselibc/@apache-mynewt-core_libc_baselibc.a(strcmp.o)
 .text.strcmp   0x0000000000000000       0x1c /home/crepel/Documents/EPFL/bluetooth_stuff/Link_layer_security/firmware_project/bin/targets/my_blinky_nordic/app/@apache-mynewt-core/libc/baselibc/@apache-mynewt-core_libc_baselibc.a(strcmp.o)
 .debug_info    0x0000000000000000       0xd1 /home/crepel/Documents/EPFL/bluetooth_stuff/Link_layer_security/firmware_project/bin/targets/my_blinky_nordic/app/@apache-mynewt-core/libc/baselibc/@apache-mynewt-core_libc_baselibc.a(strcmp.o)
 .debug_abbrev  0x0000000000000000       0x83 /home/crepel/Documents/EPFL/bluetooth_stuff/Link_layer_security/firmware_project/bin/targets/my_blinky_nordic/app/@apache-mynewt-core/libc/baselibc/@apache-mynewt-core_libc_baselibc.a(strcmp.o)
 .debug_loc     0x0000000000000000       0xa1 /home/crepel/Documents/EPFL/bluetooth_stuff/Link_layer_security/firmware_project/bin/targets/my_blinky_nordic/app/@apache-mynewt-core/libc/baselibc/@apache-mynewt-core_libc_baselibc.a(strcmp.o)
 .debug_aranges
                0x0000000000000000       0x20 /home/crepel/Documents/EPFL/bluetooth_stuff/Link_layer_security/firmware_project/bin/targets/my_blinky_nordic/app/@apache-mynewt-core/libc/baselibc/@apache-mynewt-core_libc_baselibc.a(strcmp.o)
 .debug_ranges  0x0000000000000000       0x10 /home/crepel/Documents/EPFL/bluetooth_stuff/Link_layer_security/firmware_project/bin/targets/my_blinky_nordic/app/@apache-mynewt-core/libc/baselibc/@apache-mynewt-core_libc_baselibc.a(strcmp.o)
 .debug_line    0x0000000000000000       0x6e /home/crepel/Documents/EPFL/bluetooth_stuff/Link_layer_security/firmware_project/bin/targets/my_blinky_nordic/app/@apache-mynewt-core/libc/baselibc/@apache-mynewt-core_libc_baselibc.a(strcmp.o)
 .debug_str     0x0000000000000000      0x177 /home/crepel/Documents/EPFL/bluetooth_stuff/Link_layer_security/firmware_project/bin/targets/my_blinky_nordic/app/@apache-mynewt-core/libc/baselibc/@apache-mynewt-core_libc_baselibc.a(strcmp.o)
 .comment       0x0000000000000000       0x80 /home/crepel/Documents/EPFL/bluetooth_stuff/Link_layer_security/firmware_project/bin/targets/my_blinky_nordic/app/@apache-mynewt-core/libc/baselibc/@apache-mynewt-core_libc_baselibc.a(strcmp.o)
 .debug_frame   0x0000000000000000       0x2c /home/crepel/Documents/EPFL/bluetooth_stuff/Link_layer_security/firmware_project/bin/targets/my_blinky_nordic/app/@apache-mynewt-core/libc/baselibc/@apache-mynewt-core_libc_baselibc.a(strcmp.o)
 .ARM.attributes
                0x0000000000000000       0x33 /home/crepel/Documents/EPFL/bluetooth_stuff/Link_layer_security/firmware_project/bin/targets/my_blinky_nordic/app/@apache-mynewt-core/libc/baselibc/@apache-mynewt-core_libc_baselibc.a(strcmp.o)
 .text          0x0000000000000000        0x0 /home/crepel/Documents/EPFL/bluetooth_stuff/Link_layer_security/firmware_project/bin/targets/my_blinky_nordic/app/@apache-mynewt-core/libc/baselibc/@apache-mynewt-core_libc_baselibc.a(strncat.o)
 .data          0x0000000000000000        0x0 /home/crepel/Documents/EPFL/bluetooth_stuff/Link_layer_security/firmware_project/bin/targets/my_blinky_nordic/app/@apache-mynewt-core/libc/baselibc/@apache-mynewt-core_libc_baselibc.a(strncat.o)
 .bss           0x0000000000000000        0x0 /home/crepel/Documents/EPFL/bluetooth_stuff/Link_layer_security/firmware_project/bin/targets/my_blinky_nordic/app/@apache-mynewt-core/libc/baselibc/@apache-mynewt-core_libc_baselibc.a(strncat.o)
 .text.strncat  0x0000000000000000       0x2c /home/crepel/Documents/EPFL/bluetooth_stuff/Link_layer_security/firmware_project/bin/targets/my_blinky_nordic/app/@apache-mynewt-core/libc/baselibc/@apache-mynewt-core_libc_baselibc.a(strncat.o)
 .debug_info    0x0000000000000000       0xf1 /home/crepel/Documents/EPFL/bluetooth_stuff/Link_layer_security/firmware_project/bin/targets/my_blinky_nordic/app/@apache-mynewt-core/libc/baselibc/@apache-mynewt-core_libc_baselibc.a(strncat.o)
 .debug_abbrev  0x0000000000000000       0xab /home/crepel/Documents/EPFL/bluetooth_stuff/Link_layer_security/firmware_project/bin/targets/my_blinky_nordic/app/@apache-mynewt-core/libc/baselibc/@apache-mynewt-core_libc_baselibc.a(strncat.o)
 .debug_loc     0x0000000000000000       0xd8 /home/crepel/Documents/EPFL/bluetooth_stuff/Link_layer_security/firmware_project/bin/targets/my_blinky_nordic/app/@apache-mynewt-core/libc/baselibc/@apache-mynewt-core_libc_baselibc.a(strncat.o)
 .debug_aranges
                0x0000000000000000       0x20 /home/crepel/Documents/EPFL/bluetooth_stuff/Link_layer_security/firmware_project/bin/targets/my_blinky_nordic/app/@apache-mynewt-core/libc/baselibc/@apache-mynewt-core_libc_baselibc.a(strncat.o)
 .debug_ranges  0x0000000000000000       0x10 /home/crepel/Documents/EPFL/bluetooth_stuff/Link_layer_security/firmware_project/bin/targets/my_blinky_nordic/app/@apache-mynewt-core/libc/baselibc/@apache-mynewt-core_libc_baselibc.a(strncat.o)
 .debug_line    0x0000000000000000       0xad /home/crepel/Documents/EPFL/bluetooth_stuff/Link_layer_security/firmware_project/bin/targets/my_blinky_nordic/app/@apache-mynewt-core/libc/baselibc/@apache-mynewt-core_libc_baselibc.a(strncat.o)
 .debug_str     0x0000000000000000      0x18a /home/crepel/Documents/EPFL/bluetooth_stuff/Link_layer_security/firmware_project/bin/targets/my_blinky_nordic/app/@apache-mynewt-core/libc/baselibc/@apache-mynewt-core_libc_baselibc.a(strncat.o)
 .comment       0x0000000000000000       0x80 /home/crepel/Documents/EPFL/bluetooth_stuff/Link_layer_security/firmware_project/bin/targets/my_blinky_nordic/app/@apache-mynewt-core/libc/baselibc/@apache-mynewt-core_libc_baselibc.a(strncat.o)
 .debug_frame   0x0000000000000000       0x30 /home/crepel/Documents/EPFL/bluetooth_stuff/Link_layer_security/firmware_project/bin/targets/my_blinky_nordic/app/@apache-mynewt-core/libc/baselibc/@apache-mynewt-core_libc_baselibc.a(strncat.o)
 .ARM.attributes
                0x0000000000000000       0x33 /home/crepel/Documents/EPFL/bluetooth_stuff/Link_layer_security/firmware_project/bin/targets/my_blinky_nordic/app/@apache-mynewt-core/libc/baselibc/@apache-mynewt-core_libc_baselibc.a(strncat.o)
 .text          0x0000000000000000        0x0 /home/crepel/Documents/EPFL/bluetooth_stuff/Link_layer_security/firmware_project/bin/targets/my_blinky_nordic/app/@apache-mynewt-core/libc/baselibc/@apache-mynewt-core_libc_baselibc.a(strlen.o)
 .data          0x0000000000000000        0x0 /home/crepel/Documents/EPFL/bluetooth_stuff/Link_layer_security/firmware_project/bin/targets/my_blinky_nordic/app/@apache-mynewt-core/libc/baselibc/@apache-mynewt-core_libc_baselibc.a(strlen.o)
 .bss           0x0000000000000000        0x0 /home/crepel/Documents/EPFL/bluetooth_stuff/Link_layer_security/firmware_project/bin/targets/my_blinky_nordic/app/@apache-mynewt-core/libc/baselibc/@apache-mynewt-core_libc_baselibc.a(strlen.o)
 .text          0x0000000000000000        0x0 /home/crepel/Documents/EPFL/bluetooth_stuff/Link_layer_security/firmware_project/bin/targets/my_blinky_nordic/app/@apache-mynewt-core/sys/flash_map/@apache-mynewt-core_sys_flash_map.a(flash_map.o)
 .data          0x0000000000000000        0x0 /home/crepel/Documents/EPFL/bluetooth_stuff/Link_layer_security/firmware_project/bin/targets/my_blinky_nordic/app/@apache-mynewt-core/sys/flash_map/@apache-mynewt-core_sys_flash_map.a(flash_map.o)
 .bss           0x0000000000000000        0x0 /home/crepel/Documents/EPFL/bluetooth_stuff/Link_layer_security/firmware_project/bin/targets/my_blinky_nordic/app/@apache-mynewt-core/sys/flash_map/@apache-mynewt-core_sys_flash_map.a(flash_map.o)
 .text.flash_area_to_sectors
                0x0000000000000000       0x7c /home/crepel/Documents/EPFL/bluetooth_stuff/Link_layer_security/firmware_project/bin/targets/my_blinky_nordic/app/@apache-mynewt-core/sys/flash_map/@apache-mynewt-core_sys_flash_map.a(flash_map.o)
 .text.flash_area_to_sector_ranges
                0x0000000000000000      0x114 /home/crepel/Documents/EPFL/bluetooth_stuff/Link_layer_security/firmware_project/bin/targets/my_blinky_nordic/app/@apache-mynewt-core/sys/flash_map/@apache-mynewt-core_sys_flash_map.a(flash_map.o)
 .text.flash_area_getnext_sector
                0x0000000000000000       0x94 /home/crepel/Documents/EPFL/bluetooth_stuff/Link_layer_security/firmware_project/bin/targets/my_blinky_nordic/app/@apache-mynewt-core/sys/flash_map/@apache-mynewt-core_sys_flash_map.a(flash_map.o)
 .text.flash_area_write
                0x0000000000000000       0x26 /home/crepel/Documents/EPFL/bluetooth_stuff/Link_layer_security/firmware_project/bin/targets/my_blinky_nordic/app/@apache-mynewt-core/sys/flash_map/@apache-mynewt-core_sys_flash_map.a(flash_map.o)
 .text.flash_area_erase
                0x0000000000000000       0x26 /home/crepel/Documents/EPFL/bluetooth_stuff/Link_layer_security/firmware_project/bin/targets/my_blinky_nordic/app/@apache-mynewt-core/sys/flash_map/@apache-mynewt-core_sys_flash_map.a(flash_map.o)
 .text.flash_area_align
                0x0000000000000000        0xa /home/crepel/Documents/EPFL/bluetooth_stuff/Link_layer_security/firmware_project/bin/targets/my_blinky_nordic/app/@apache-mynewt-core/sys/flash_map/@apache-mynewt-core_sys_flash_map.a(flash_map.o)
 .text.flash_area_erased_val
                0x0000000000000000        0xa /home/crepel/Documents/EPFL/bluetooth_stuff/Link_layer_security/firmware_project/bin/targets/my_blinky_nordic/app/@apache-mynewt-core/sys/flash_map/@apache-mynewt-core_sys_flash_map.a(flash_map.o)
 .text.flash_area_is_empty
                0x0000000000000000       0x26 /home/crepel/Documents/EPFL/bluetooth_stuff/Link_layer_security/firmware_project/bin/targets/my_blinky_nordic/app/@apache-mynewt-core/sys/flash_map/@apache-mynewt-core_sys_flash_map.a(flash_map.o)
 .text.flash_area_read_is_empty
                0x0000000000000000        0xe /home/crepel/Documents/EPFL/bluetooth_stuff/Link_layer_security/firmware_project/bin/targets/my_blinky_nordic/app/@apache-mynewt-core/sys/flash_map/@apache-mynewt-core_sys_flash_map.a(flash_map.o)
 .text.flash_area_id_from_image_slot
                0x0000000000000000       0x24 /home/crepel/Documents/EPFL/bluetooth_stuff/Link_layer_security/firmware_project/bin/targets/my_blinky_nordic/app/@apache-mynewt-core/sys/flash_map/@apache-mynewt-core_sys_flash_map.a(flash_map.o)
 .text.flash_area_id_to_image_slot
                0x0000000000000000       0x16 /home/crepel/Documents/EPFL/bluetooth_stuff/Link_layer_security/firmware_project/bin/targets/my_blinky_nordic/app/@apache-mynewt-core/sys/flash_map/@apache-mynewt-core_sys_flash_map.a(flash_map.o)
 .text          0x0000000000000000        0x0 /home/crepel/Documents/EPFL/bluetooth_stuff/Link_layer_security/firmware_project/bin/targets/my_blinky_nordic/app/@apache-mynewt-core/sys/log/modlog/@apache-mynewt-core_sys_log_modlog.a(modlog.o)
 .data          0x0000000000000000        0x0 /home/crepel/Documents/EPFL/bluetooth_stuff/Link_layer_security/firmware_project/bin/targets/my_blinky_nordic/app/@apache-mynewt-core/sys/log/modlog/@apache-mynewt-core_sys_log_modlog.a(modlog.o)
 .bss           0x0000000000000000        0x0 /home/crepel/Documents/EPFL/bluetooth_stuff/Link_layer_security/firmware_project/bin/targets/my_blinky_nordic/app/@apache-mynewt-core/sys/log/modlog/@apache-mynewt-core_sys_log_modlog.a(modlog.o)
 .text          0x0000000000000000        0x0 /home/crepel/Documents/EPFL/bluetooth_stuff/Link_layer_security/firmware_project/bin/targets/my_blinky_nordic/app/@apache-mynewt-core/sys/mfg/@apache-mynewt-core_sys_mfg.a(mfg.o)
 .data          0x0000000000000000        0x0 /home/crepel/Documents/EPFL/bluetooth_stuff/Link_layer_security/firmware_project/bin/targets/my_blinky_nordic/app/@apache-mynewt-core/sys/mfg/@apache-mynewt-core_sys_mfg.a(mfg.o)
 .bss           0x0000000000000000        0x0 /home/crepel/Documents/EPFL/bluetooth_stuff/Link_layer_security/firmware_project/bin/targets/my_blinky_nordic/app/@apache-mynewt-core/sys/mfg/@apache-mynewt-core_sys_mfg.a(mfg.o)
 .text.mfg_read_tlv_hash
                0x0000000000000000        0xa /home/crepel/Documents/EPFL/bluetooth_stuff/Link_layer_security/firmware_project/bin/targets/my_blinky_nordic/app/@apache-mynewt-core/sys/mfg/@apache-mynewt-core_sys_mfg.a(mfg.o)
 .text          0x0000000000000000        0x0 /home/crepel/Documents/EPFL/bluetooth_stuff/Link_layer_security/firmware_project/bin/targets/my_blinky_nordic/app/@apache-mynewt-core/sys/sysdown/@apache-mynewt-core_sys_sysdown.a(sysdown.o)
 .data          0x0000000000000000        0x0 /home/crepel/Documents/EPFL/bluetooth_stuff/Link_layer_security/firmware_project/bin/targets/my_blinky_nordic/app/@apache-mynewt-core/sys/sysdown/@apache-mynewt-core_sys_sysdown.a(sysdown.o)
 .bss           0x0000000000000000        0x0 /home/crepel/Documents/EPFL/bluetooth_stuff/Link_layer_security/firmware_project/bin/targets/my_blinky_nordic/app/@apache-mynewt-core/sys/sysdown/@apache-mynewt-core_sys_sysdown.a(sysdown.o)
 .text.sysdown_dflt_panic_cb
                0x0000000000000000        0x6 /home/crepel/Documents/EPFL/bluetooth_stuff/Link_layer_security/firmware_project/bin/targets/my_blinky_nordic/app/@apache-mynewt-core/sys/sysdown/@apache-mynewt-core_sys_sysdown.a(sysdown.o)
 .text.sysdown_complete
                0x0000000000000000       0x14 /home/crepel/Documents/EPFL/bluetooth_stuff/Link_layer_security/firmware_project/bin/targets/my_blinky_nordic/app/@apache-mynewt-core/sys/sysdown/@apache-mynewt-core_sys_sysdown.a(sysdown.o)
 .text.sysdown_timer_exp
                0x0000000000000000       0x16 /home/crepel/Documents/EPFL/bluetooth_stuff/Link_layer_security/firmware_project/bin/targets/my_blinky_nordic/app/@apache-mynewt-core/sys/sysdown/@apache-mynewt-core_sys_sysdown.a(sysdown.o)
 .text.sysdown_panic_set
                0x0000000000000000        0xc /home/crepel/Documents/EPFL/bluetooth_stuff/Link_layer_security/firmware_project/bin/targets/my_blinky_nordic/app/@apache-mynewt-core/sys/sysdown/@apache-mynewt-core_sys_sysdown.a(sysdown.o)
 .text.sysdown_release
                0x0000000000000000       0x24 /home/crepel/Documents/EPFL/bluetooth_stuff/Link_layer_security/firmware_project/bin/targets/my_blinky_nordic/app/@apache-mynewt-core/sys/sysdown/@apache-mynewt-core_sys_sysdown.a(sysdown.o)
 .text.sysdown  0x0000000000000000       0xa4 /home/crepel/Documents/EPFL/bluetooth_stuff/Link_layer_security/firmware_project/bin/targets/my_blinky_nordic/app/@apache-mynewt-core/sys/sysdown/@apache-mynewt-core_sys_sysdown.a(sysdown.o)
 .bss.sysdown_num_in_progress
                0x0000000000000000        0x4 /home/crepel/Documents/EPFL/bluetooth_stuff/Link_layer_security/firmware_project/bin/targets/my_blinky_nordic/app/@apache-mynewt-core/sys/sysdown/@apache-mynewt-core_sys_sysdown.a(sysdown.o)
 .bss.sysdown_timer
                0x0000000000000000       0x20 /home/crepel/Documents/EPFL/bluetooth_stuff/Link_layer_security/firmware_project/bin/targets/my_blinky_nordic/app/@apache-mynewt-core/sys/sysdown/@apache-mynewt-core_sys_sysdown.a(sysdown.o)
 .data.sysdown_panic_cb
                0x0000000000000000        0x4 /home/crepel/Documents/EPFL/bluetooth_stuff/Link_layer_security/firmware_project/bin/targets/my_blinky_nordic/app/@apache-mynewt-core/sys/sysdown/@apache-mynewt-core_sys_sysdown.a(sysdown.o)
 .debug_info    0x0000000000000000      0xa95 /home/crepel/Documents/EPFL/bluetooth_stuff/Link_layer_security/firmware_project/bin/targets/my_blinky_nordic/app/@apache-mynewt-core/sys/sysdown/@apache-mynewt-core_sys_sysdown.a(sysdown.o)
 .debug_abbrev  0x0000000000000000      0x21b /home/crepel/Documents/EPFL/bluetooth_stuff/Link_layer_security/firmware_project/bin/targets/my_blinky_nordic/app/@apache-mynewt-core/sys/sysdown/@apache-mynewt-core_sys_sysdown.a(sysdown.o)
 .debug_loc     0x0000000000000000      0x14a /home/crepel/Documents/EPFL/bluetooth_stuff/Link_layer_security/firmware_project/bin/targets/my_blinky_nordic/app/@apache-mynewt-core/sys/sysdown/@apache-mynewt-core_sys_sysdown.a(sysdown.o)
 .debug_aranges
                0x0000000000000000       0x48 /home/crepel/Documents/EPFL/bluetooth_stuff/Link_layer_security/firmware_project/bin/targets/my_blinky_nordic/app/@apache-mynewt-core/sys/sysdown/@apache-mynewt-core_sys_sysdown.a(sysdown.o)
 .debug_ranges  0x0000000000000000       0x38 /home/crepel/Documents/EPFL/bluetooth_stuff/Link_layer_security/firmware_project/bin/targets/my_blinky_nordic/app/@apache-mynewt-core/sys/sysdown/@apache-mynewt-core_sys_sysdown.a(sysdown.o)
 .debug_line    0x0000000000000000      0x5b8 /home/crepel/Documents/EPFL/bluetooth_stuff/Link_layer_security/firmware_project/bin/targets/my_blinky_nordic/app/@apache-mynewt-core/sys/sysdown/@apache-mynewt-core_sys_sysdown.a(sysdown.o)
 .debug_str     0x0000000000000000      0x7c5 /home/crepel/Documents/EPFL/bluetooth_stuff/Link_layer_security/firmware_project/bin/targets/my_blinky_nordic/app/@apache-mynewt-core/sys/sysdown/@apache-mynewt-core_sys_sysdown.a(sysdown.o)
 .comment       0x0000000000000000       0x80 /home/crepel/Documents/EPFL/bluetooth_stuff/Link_layer_security/firmware_project/bin/targets/my_blinky_nordic/app/@apache-mynewt-core/sys/sysdown/@apache-mynewt-core_sys_sysdown.a(sysdown.o)
 .debug_frame   0x0000000000000000       0x9c /home/crepel/Documents/EPFL/bluetooth_stuff/Link_layer_security/firmware_project/bin/targets/my_blinky_nordic/app/@apache-mynewt-core/sys/sysdown/@apache-mynewt-core_sys_sysdown.a(sysdown.o)
 .ARM.attributes
                0x0000000000000000       0x33 /home/crepel/Documents/EPFL/bluetooth_stuff/Link_layer_security/firmware_project/bin/targets/my_blinky_nordic/app/@apache-mynewt-core/sys/sysdown/@apache-mynewt-core_sys_sysdown.a(sysdown.o)
 COMMON         0x0000000000000000        0x1 /home/crepel/Documents/EPFL/bluetooth_stuff/Link_layer_security/firmware_project/bin/targets/my_blinky_nordic/app/@apache-mynewt-core/sys/sysdown/@apache-mynewt-core_sys_sysdown.a(sysdown.o)
 .text          0x0000000000000000        0x0 /home/crepel/Documents/EPFL/bluetooth_stuff/Link_layer_security/firmware_project/bin/targets/my_blinky_nordic/app/@apache-mynewt-core/sys/sysinit/@apache-mynewt-core_sys_sysinit.a(sysinit.o)
 .data          0x0000000000000000        0x0 /home/crepel/Documents/EPFL/bluetooth_stuff/Link_layer_security/firmware_project/bin/targets/my_blinky_nordic/app/@apache-mynewt-core/sys/sysinit/@apache-mynewt-core_sys_sysinit.a(sysinit.o)
 .bss           0x0000000000000000        0x0 /home/crepel/Documents/EPFL/bluetooth_stuff/Link_layer_security/firmware_project/bin/targets/my_blinky_nordic/app/@apache-mynewt-core/sys/sysinit/@apache-mynewt-core_sys_sysinit.a(sysinit.o)
 .text.sysinit_panic_set
                0x0000000000000000        0xc /home/crepel/Documents/EPFL/bluetooth_stuff/Link_layer_security/firmware_project/bin/targets/my_blinky_nordic/app/@apache-mynewt-core/sys/sysinit/@apache-mynewt-core_sys_sysinit.a(sysinit.o)
 .text          0x0000000000000000        0x0 /home/crepel/Documents/EPFL/bluetooth_stuff/Link_layer_security/firmware_project/bin/targets/my_blinky_nordic/app/@apache-mynewt-core/util/mem/@apache-mynewt-core_util_mem.a(mem.o)
 .data          0x0000000000000000        0x0 /home/crepel/Documents/EPFL/bluetooth_stuff/Link_layer_security/firmware_project/bin/targets/my_blinky_nordic/app/@apache-mynewt-core/util/mem/@apache-mynewt-core_util_mem.a(mem.o)
 .bss           0x0000000000000000        0x0 /home/crepel/Documents/EPFL/bluetooth_stuff/Link_layer_security/firmware_project/bin/targets/my_blinky_nordic/app/@apache-mynewt-core/util/mem/@apache-mynewt-core_util_mem.a(mem.o)
 .text.mem_malloc_mempool_gen
                0x0000000000000000       0x32 /home/crepel/Documents/EPFL/bluetooth_stuff/Link_layer_security/firmware_project/bin/targets/my_blinky_nordic/app/@apache-mynewt-core/util/mem/@apache-mynewt-core_util_mem.a(mem.o)
 .text.mem_malloc_mempool
                0x0000000000000000       0x4e /home/crepel/Documents/EPFL/bluetooth_stuff/Link_layer_security/firmware_project/bin/targets/my_blinky_nordic/app/@apache-mynewt-core/util/mem/@apache-mynewt-core_util_mem.a(mem.o)
 .text.mem_malloc_mempool_ext
                0x0000000000000000       0x4e /home/crepel/Documents/EPFL/bluetooth_stuff/Link_layer_security/firmware_project/bin/targets/my_blinky_nordic/app/@apache-mynewt-core/util/mem/@apache-mynewt-core_util_mem.a(mem.o)
 .text.mem_malloc_mbuf_pool
                0x0000000000000000       0x62 /home/crepel/Documents/EPFL/bluetooth_stuff/Link_layer_security/firmware_project/bin/targets/my_blinky_nordic/app/@apache-mynewt-core/util/mem/@apache-mynewt-core_util_mem.a(mem.o)
 .text.mem_malloc_mbufpkt_pool
                0x0000000000000000       0x18 /home/crepel/Documents/EPFL/bluetooth_stuff/Link_layer_security/firmware_project/bin/targets/my_blinky_nordic/app/@apache-mynewt-core/util/mem/@apache-mynewt-core_util_mem.a(mem.o)
 .text.mem_split_frag
                0x0000000000000000       0x48 /home/crepel/Documents/EPFL/bluetooth_stuff/Link_layer_security/firmware_project/bin/targets/my_blinky_nordic/app/@apache-mynewt-core/util/mem/@apache-mynewt-core_util_mem.a(mem.o)
 .text.mem_pullup_obj
                0x0000000000000000       0x16 /home/crepel/Documents/EPFL/bluetooth_stuff/Link_layer_security/firmware_project/bin/targets/my_blinky_nordic/app/@apache-mynewt-core/util/mem/@apache-mynewt-core_util_mem.a(mem.o)
 .text          0x0000000000000000        0x0 /home/crepel/Documents/EPFL/bluetooth_stuff/Link_layer_security/firmware_project/bin/targets/my_blinky_nordic/generated/bin/my_blinky_nordic-sysinit-app.a(my_blinky_nordic-sysdown-app.o)
 .data          0x0000000000000000        0x0 /home/crepel/Documents/EPFL/bluetooth_stuff/Link_layer_security/firmware_project/bin/targets/my_blinky_nordic/generated/bin/my_blinky_nordic-sysinit-app.a(my_blinky_nordic-sysdown-app.o)
 .bss           0x0000000000000000        0x0 /home/crepel/Documents/EPFL/bluetooth_stuff/Link_layer_security/firmware_project/bin/targets/my_blinky_nordic/generated/bin/my_blinky_nordic-sysinit-app.a(my_blinky_nordic-sysdown-app.o)
 .rodata.sysdown_cbs
                0x0000000000000000        0x4 /home/crepel/Documents/EPFL/bluetooth_stuff/Link_layer_security/firmware_project/bin/targets/my_blinky_nordic/generated/bin/my_blinky_nordic-sysinit-app.a(my_blinky_nordic-sysdown-app.o)
 .debug_info    0x0000000000000000       0x6c /home/crepel/Documents/EPFL/bluetooth_stuff/Link_layer_security/firmware_project/bin/targets/my_blinky_nordic/generated/bin/my_blinky_nordic-sysinit-app.a(my_blinky_nordic-sysdown-app.o)
 .debug_abbrev  0x0000000000000000       0x6b /home/crepel/Documents/EPFL/bluetooth_stuff/Link_layer_security/firmware_project/bin/targets/my_blinky_nordic/generated/bin/my_blinky_nordic-sysinit-app.a(my_blinky_nordic-sysdown-app.o)
 .debug_aranges
                0x0000000000000000       0x18 /home/crepel/Documents/EPFL/bluetooth_stuff/Link_layer_security/firmware_project/bin/targets/my_blinky_nordic/generated/bin/my_blinky_nordic-sysinit-app.a(my_blinky_nordic-sysdown-app.o)
 .debug_line    0x0000000000000000       0x6a /home/crepel/Documents/EPFL/bluetooth_stuff/Link_layer_security/firmware_project/bin/targets/my_blinky_nordic/generated/bin/my_blinky_nordic-sysinit-app.a(my_blinky_nordic-sysdown-app.o)
 .debug_str     0x0000000000000000      0x165 /home/crepel/Documents/EPFL/bluetooth_stuff/Link_layer_security/firmware_project/bin/targets/my_blinky_nordic/generated/bin/my_blinky_nordic-sysinit-app.a(my_blinky_nordic-sysdown-app.o)
 .comment       0x0000000000000000       0x80 /home/crepel/Documents/EPFL/bluetooth_stuff/Link_layer_security/firmware_project/bin/targets/my_blinky_nordic/generated/bin/my_blinky_nordic-sysinit-app.a(my_blinky_nordic-sysdown-app.o)
 .ARM.attributes
                0x0000000000000000       0x33 /home/crepel/Documents/EPFL/bluetooth_stuff/Link_layer_security/firmware_project/bin/targets/my_blinky_nordic/generated/bin/my_blinky_nordic-sysinit-app.a(my_blinky_nordic-sysdown-app.o)
 .text          0x0000000000000000        0x0 /home/crepel/Documents/EPFL/bluetooth_stuff/Link_layer_security/firmware_project/bin/targets/my_blinky_nordic/generated/bin/my_blinky_nordic-sysinit-app.a(my_blinky_nordic-sysflash.o)
 .data          0x0000000000000000        0x0 /home/crepel/Documents/EPFL/bluetooth_stuff/Link_layer_security/firmware_project/bin/targets/my_blinky_nordic/generated/bin/my_blinky_nordic-sysinit-app.a(my_blinky_nordic-sysflash.o)
 .bss           0x0000000000000000        0x0 /home/crepel/Documents/EPFL/bluetooth_stuff/Link_layer_security/firmware_project/bin/targets/my_blinky_nordic/generated/bin/my_blinky_nordic-sysinit-app.a(my_blinky_nordic-sysflash.o)
 .text          0x0000000000000000        0x0 /home/crepel/Documents/EPFL/bluetooth_stuff/Link_layer_security/firmware_project/bin/targets/my_blinky_nordic/app/@apache-mynewt-core/hw/bsp/nordic_pca10056/@apache-mynewt-core_hw_bsp_nordic_pca10056.a(hal_bsp.o)
 .data          0x0000000000000000        0x0 /home/crepel/Documents/EPFL/bluetooth_stuff/Link_layer_security/firmware_project/bin/targets/my_blinky_nordic/app/@apache-mynewt-core/hw/bsp/nordic_pca10056/@apache-mynewt-core_hw_bsp_nordic_pca10056.a(hal_bsp.o)
 .bss           0x0000000000000000        0x0 /home/crepel/Documents/EPFL/bluetooth_stuff/Link_layer_security/firmware_project/bin/targets/my_blinky_nordic/app/@apache-mynewt-core/hw/bsp/nordic_pca10056/@apache-mynewt-core_hw_bsp_nordic_pca10056.a(hal_bsp.o)
 .text.hal_bsp_core_dump
                0x0000000000000000        0xc /home/crepel/Documents/EPFL/bluetooth_stuff/Link_layer_security/firmware_project/bin/targets/my_blinky_nordic/app/@apache-mynewt-core/hw/bsp/nordic_pca10056/@apache-mynewt-core_hw_bsp_nordic_pca10056.a(hal_bsp.o)
 .text.hal_bsp_power_state
                0x0000000000000000        0x4 /home/crepel/Documents/EPFL/bluetooth_stuff/Link_layer_security/firmware_project/bin/targets/my_blinky_nordic/app/@apache-mynewt-core/hw/bsp/nordic_pca10056/@apache-mynewt-core_hw_bsp_nordic_pca10056.a(hal_bsp.o)
 .text.hal_bsp_get_nvic_priority
                0x0000000000000000        0xc /home/crepel/Documents/EPFL/bluetooth_stuff/Link_layer_security/firmware_project/bin/targets/my_blinky_nordic/app/@apache-mynewt-core/hw/bsp/nordic_pca10056/@apache-mynewt-core_hw_bsp_nordic_pca10056.a(hal_bsp.o)
 .rodata.dump_cfg
                0x0000000000000000        0x8 /home/crepel/Documents/EPFL/bluetooth_stuff/Link_layer_security/firmware_project/bin/targets/my_blinky_nordic/app/@apache-mynewt-core/hw/bsp/nordic_pca10056/@apache-mynewt-core_hw_bsp_nordic_pca10056.a(hal_bsp.o)
 .text          0x0000000000000000        0x0 /home/crepel/Documents/EPFL/bluetooth_stuff/Link_layer_security/firmware_project/bin/targets/my_blinky_nordic/app/@apache-mynewt-core/hw/hal/@apache-mynewt-core_hw_hal.a(hal_flash.o)
 .data          0x0000000000000000        0x0 /home/crepel/Documents/EPFL/bluetooth_stuff/Link_layer_security/firmware_project/bin/targets/my_blinky_nordic/app/@apache-mynewt-core/hw/hal/@apache-mynewt-core_hw_hal.a(hal_flash.o)
 .bss           0x0000000000000000        0x0 /home/crepel/Documents/EPFL/bluetooth_stuff/Link_layer_security/firmware_project/bin/targets/my_blinky_nordic/app/@apache-mynewt-core/hw/hal/@apache-mynewt-core_hw_hal.a(hal_flash.o)
 .text.hal_flash_align
                0x0000000000000000       0x10 /home/crepel/Documents/EPFL/bluetooth_stuff/Link_layer_security/firmware_project/bin/targets/my_blinky_nordic/app/@apache-mynewt-core/hw/hal/@apache-mynewt-core_hw_hal.a(hal_flash.o)
 .text.hal_flash_erased_val
                0x0000000000000000       0x10 /home/crepel/Documents/EPFL/bluetooth_stuff/Link_layer_security/firmware_project/bin/targets/my_blinky_nordic/app/@apache-mynewt-core/hw/hal/@apache-mynewt-core_hw_hal.a(hal_flash.o)
 .text.hal_flash_sector_size
                0x0000000000000000       0x1a /home/crepel/Documents/EPFL/bluetooth_stuff/Link_layer_security/firmware_project/bin/targets/my_blinky_nordic/app/@apache-mynewt-core/hw/hal/@apache-mynewt-core_hw_hal.a(hal_flash.o)
 .text.hal_flash_write
                0x0000000000000000       0x74 /home/crepel/Documents/EPFL/bluetooth_stuff/Link_layer_security/firmware_project/bin/targets/my_blinky_nordic/app/@apache-mynewt-core/hw/hal/@apache-mynewt-core_hw_hal.a(hal_flash.o)
 .text.hal_flash_erase_sector
                0x0000000000000000       0x58 /home/crepel/Documents/EPFL/bluetooth_stuff/Link_layer_security/firmware_project/bin/targets/my_blinky_nordic/app/@apache-mynewt-core/hw/hal/@apache-mynewt-core_hw_hal.a(hal_flash.o)
 .text.hal_flash_erase
                0x0000000000000000       0xd8 /home/crepel/Documents/EPFL/bluetooth_stuff/Link_layer_security/firmware_project/bin/targets/my_blinky_nordic/app/@apache-mynewt-core/hw/hal/@apache-mynewt-core_hw_hal.a(hal_flash.o)
 .text.hal_flash_is_erased
                0x0000000000000000       0x30 /home/crepel/Documents/EPFL/bluetooth_stuff/Link_layer_security/firmware_project/bin/targets/my_blinky_nordic/app/@apache-mynewt-core/hw/hal/@apache-mynewt-core_hw_hal.a(hal_flash.o)
 .text.hal_flash_isempty
                0x0000000000000000       0x62 /home/crepel/Documents/EPFL/bluetooth_stuff/Link_layer_security/firmware_project/bin/targets/my_blinky_nordic/app/@apache-mynewt-core/hw/hal/@apache-mynewt-core_hw_hal.a(hal_flash.o)
 .text.hal_flash_isempty_no_buf
                0x0000000000000000       0x32 /home/crepel/Documents/EPFL/bluetooth_stuff/Link_layer_security/firmware_project/bin/targets/my_blinky_nordic/app/@apache-mynewt-core/hw/hal/@apache-mynewt-core_hw_hal.a(hal_flash.o)
 .text.hal_flash_ioctl
                0x0000000000000000        0x4 /home/crepel/Documents/EPFL/bluetooth_stuff/Link_layer_security/firmware_project/bin/targets/my_blinky_nordic/app/@apache-mynewt-core/hw/hal/@apache-mynewt-core_hw_hal.a(hal_flash.o)
 .text.hal_flash_write_protect
                0x0000000000000000       0x50 /home/crepel/Documents/EPFL/bluetooth_stuff/Link_layer_security/firmware_project/bin/targets/my_blinky_nordic/app/@apache-mynewt-core/hw/hal/@apache-mynewt-core_hw_hal.a(hal_flash.o)
 .bss.protected_flash
                0x0000000000000000        0x1 /home/crepel/Documents/EPFL/bluetooth_stuff/Link_layer_security/firmware_project/bin/targets/my_blinky_nordic/app/@apache-mynewt-core/hw/hal/@apache-mynewt-core_hw_hal.a(hal_flash.o)
 .text          0x0000000000000000        0x0 /home/crepel/Documents/EPFL/bluetooth_stuff/Link_layer_security/firmware_project/bin/targets/my_blinky_nordic/app/@apache-mynewt-core/hw/mcu/nordic/nrf52xxx/@apache-mynewt-core_hw_mcu_nordic_nrf52xxx.a(hal_flash.o)
 .data          0x0000000000000000        0x0 /home/crepel/Documents/EPFL/bluetooth_stuff/Link_layer_security/firmware_project/bin/targets/my_blinky_nordic/app/@apache-mynewt-core/hw/mcu/nordic/nrf52xxx/@apache-mynewt-core_hw_mcu_nordic_nrf52xxx.a(hal_flash.o)
 .bss           0x0000000000000000        0x0 /home/crepel/Documents/EPFL/bluetooth_stuff/Link_layer_security/firmware_project/bin/targets/my_blinky_nordic/app/@apache-mynewt-core/hw/mcu/nordic/nrf52xxx/@apache-mynewt-core_hw_mcu_nordic_nrf52xxx.a(hal_flash.o)
 .text          0x0000000000000000        0x0 /home/crepel/Documents/EPFL/bluetooth_stuff/Link_layer_security/firmware_project/bin/targets/my_blinky_nordic/app/@apache-mynewt-core/hw/mcu/nordic/nrf52xxx/@apache-mynewt-core_hw_mcu_nordic_nrf52xxx.a(hal_os_tick.o)
 .data          0x0000000000000000        0x0 /home/crepel/Documents/EPFL/bluetooth_stuff/Link_layer_security/firmware_project/bin/targets/my_blinky_nordic/app/@apache-mynewt-core/hw/mcu/nordic/nrf52xxx/@apache-mynewt-core_hw_mcu_nordic_nrf52xxx.a(hal_os_tick.o)
 .bss           0x0000000000000000        0x0 /home/crepel/Documents/EPFL/bluetooth_stuff/Link_layer_security/firmware_project/bin/targets/my_blinky_nordic/app/@apache-mynewt-core/hw/mcu/nordic/nrf52xxx/@apache-mynewt-core_hw_mcu_nordic_nrf52xxx.a(hal_os_tick.o)
 .text          0x0000000000000000        0x0 /home/crepel/Documents/EPFL/bluetooth_stuff/Link_layer_security/firmware_project/bin/targets/my_blinky_nordic/app/@apache-mynewt-core/hw/mcu/nordic/nrf52xxx/@apache-mynewt-core_hw_mcu_nordic_nrf52xxx.a(hal_watchdog.o)
 .data          0x0000000000000000        0x0 /home/crepel/Documents/EPFL/bluetooth_stuff/Link_layer_security/firmware_project/bin/targets/my_blinky_nordic/app/@apache-mynewt-core/hw/mcu/nordic/nrf52xxx/@apache-mynewt-core_hw_mcu_nordic_nrf52xxx.a(hal_watchdog.o)
 .bss           0x0000000000000000        0x0 /home/crepel/Documents/EPFL/bluetooth_stuff/Link_layer_security/firmware_project/bin/targets/my_blinky_nordic/app/@apache-mynewt-core/hw/mcu/nordic/nrf52xxx/@apache-mynewt-core_hw_mcu_nordic_nrf52xxx.a(hal_watchdog.o)
 .text          0x0000000000000000        0x0 /home/crepel/Documents/EPFL/bluetooth_stuff/Link_layer_security/firmware_project/bin/targets/my_blinky_nordic/app/@apache-mynewt-core/hw/mcu/nordic/nrf52xxx/@apache-mynewt-core_hw_mcu_nordic_nrf52xxx.a(nrf52_periph.o)
 .data          0x0000000000000000        0x0 /home/crepel/Documents/EPFL/bluetooth_stuff/Link_layer_security/firmware_project/bin/targets/my_blinky_nordic/app/@apache-mynewt-core/hw/mcu/nordic/nrf52xxx/@apache-mynewt-core_hw_mcu_nordic_nrf52xxx.a(nrf52_periph.o)
 .bss           0x0000000000000000        0x0 /home/crepel/Documents/EPFL/bluetooth_stuff/Link_layer_security/firmware_project/bin/targets/my_blinky_nordic/app/@apache-mynewt-core/hw/mcu/nordic/nrf52xxx/@apache-mynewt-core_hw_mcu_nordic_nrf52xxx.a(nrf52_periph.o)
 .text          0x0000000000000000        0x0 /home/crepel/Documents/EPFL/bluetooth_stuff/Link_layer_security/firmware_project/bin/targets/my_blinky_nordic/app/@apache-mynewt-core/hw/mcu/nordic/nrf52xxx/@apache-mynewt-core_hw_mcu_nordic_nrf52xxx.a(hal_timer.o)
 .data          0x0000000000000000        0x0 /home/crepel/Documents/EPFL/bluetooth_stuff/Link_layer_security/firmware_project/bin/targets/my_blinky_nordic/app/@apache-mynewt-core/hw/mcu/nordic/nrf52xxx/@apache-mynewt-core_hw_mcu_nordic_nrf52xxx.a(hal_timer.o)
 .bss           0x0000000000000000        0x0 /home/crepel/Documents/EPFL/bluetooth_stuff/Link_layer_security/firmware_project/bin/targets/my_blinky_nordic/app/@apache-mynewt-core/hw/mcu/nordic/nrf52xxx/@apache-mynewt-core_hw_mcu_nordic_nrf52xxx.a(hal_timer.o)
 .text.hal_timer_deinit
                0x0000000000000000       0x54 /home/crepel/Documents/EPFL/bluetooth_stuff/Link_layer_security/firmware_project/bin/targets/my_blinky_nordic/app/@apache-mynewt-core/hw/mcu/nordic/nrf52xxx/@apache-mynewt-core_hw_mcu_nordic_nrf52xxx.a(hal_timer.o)
 .text.hal_timer_get_resolution
                0x0000000000000000       0x28 /home/crepel/Documents/EPFL/bluetooth_stuff/Link_layer_security/firmware_project/bin/targets/my_blinky_nordic/app/@apache-mynewt-core/hw/mcu/nordic/nrf52xxx/@apache-mynewt-core_hw_mcu_nordic_nrf52xxx.a(hal_timer.o)
 .text.hal_timer_read
                0x0000000000000000       0x38 /home/crepel/Documents/EPFL/bluetooth_stuff/Link_layer_security/firmware_project/bin/targets/my_blinky_nordic/app/@apache-mynewt-core/hw/mcu/nordic/nrf52xxx/@apache-mynewt-core_hw_mcu_nordic_nrf52xxx.a(hal_timer.o)
 .text.hal_timer_delay
                0x0000000000000000       0x1c /home/crepel/Documents/EPFL/bluetooth_stuff/Link_layer_security/firmware_project/bin/targets/my_blinky_nordic/app/@apache-mynewt-core/hw/mcu/nordic/nrf52xxx/@apache-mynewt-core_hw_mcu_nordic_nrf52xxx.a(hal_timer.o)
 .text.hal_timer_set_cb
                0x0000000000000000       0x28 /home/crepel/Documents/EPFL/bluetooth_stuff/Link_layer_security/firmware_project/bin/targets/my_blinky_nordic/app/@apache-mynewt-core/hw/mcu/nordic/nrf52xxx/@apache-mynewt-core_hw_mcu_nordic_nrf52xxx.a(hal_timer.o)
 .text.hal_timer_start_at
                0x0000000000000000       0x8c /home/crepel/Documents/EPFL/bluetooth_stuff/Link_layer_security/firmware_project/bin/targets/my_blinky_nordic/app/@apache-mynewt-core/hw/mcu/nordic/nrf52xxx/@apache-mynewt-core_hw_mcu_nordic_nrf52xxx.a(hal_timer.o)
 .text.hal_timer_start
                0x0000000000000000       0x24 /home/crepel/Documents/EPFL/bluetooth_stuff/Link_layer_security/firmware_project/bin/targets/my_blinky_nordic/app/@apache-mynewt-core/hw/mcu/nordic/nrf52xxx/@apache-mynewt-core_hw_mcu_nordic_nrf52xxx.a(hal_timer.o)
 .text.hal_timer_stop
                0x0000000000000000       0x64 /home/crepel/Documents/EPFL/bluetooth_stuff/Link_layer_security/firmware_project/bin/targets/my_blinky_nordic/app/@apache-mynewt-core/hw/mcu/nordic/nrf52xxx/@apache-mynewt-core_hw_mcu_nordic_nrf52xxx.a(hal_timer.o)
 .text          0x0000000000000000        0x0 /home/crepel/Documents/EPFL/bluetooth_stuff/Link_layer_security/firmware_project/bin/targets/my_blinky_nordic/app/@apache-mynewt-core/kernel/os/@apache-mynewt-core_kernel_os.a(os_cputime.o)
 .data          0x0000000000000000        0x0 /home/crepel/Documents/EPFL/bluetooth_stuff/Link_layer_security/firmware_project/bin/targets/my_blinky_nordic/app/@apache-mynewt-core/kernel/os/@apache-mynewt-core_kernel_os.a(os_cputime.o)
 .bss           0x0000000000000000        0x0 /home/crepel/Documents/EPFL/bluetooth_stuff/Link_layer_security/firmware_project/bin/targets/my_blinky_nordic/app/@apache-mynewt-core/kernel/os/@apache-mynewt-core_kernel_os.a(os_cputime.o)
 .text.os_cputime_timer_init
                0x0000000000000000       0x3c /home/crepel/Documents/EPFL/bluetooth_stuff/Link_layer_security/firmware_project/bin/targets/my_blinky_nordic/app/@apache-mynewt-core/kernel/os/@apache-mynewt-core_kernel_os.a(os_cputime.o)
 .text.os_cputime_timer_start
                0x0000000000000000        0x8 /home/crepel/Documents/EPFL/bluetooth_stuff/Link_layer_security/firmware_project/bin/targets/my_blinky_nordic/app/@apache-mynewt-core/kernel/os/@apache-mynewt-core_kernel_os.a(os_cputime.o)
 .text.os_cputime_timer_stop
                0x0000000000000000        0x8 /home/crepel/Documents/EPFL/bluetooth_stuff/Link_layer_security/firmware_project/bin/targets/my_blinky_nordic/app/@apache-mynewt-core/kernel/os/@apache-mynewt-core_kernel_os.a(os_cputime.o)
 .text.os_cputime_get32
                0x0000000000000000        0xa /home/crepel/Documents/EPFL/bluetooth_stuff/Link_layer_security/firmware_project/bin/targets/my_blinky_nordic/app/@apache-mynewt-core/kernel/os/@apache-mynewt-core_kernel_os.a(os_cputime.o)
 .text.os_cputime_delay_ticks
                0x0000000000000000       0x16 /home/crepel/Documents/EPFL/bluetooth_stuff/Link_layer_security/firmware_project/bin/targets/my_blinky_nordic/app/@apache-mynewt-core/kernel/os/@apache-mynewt-core_kernel_os.a(os_cputime.o)
 .text.os_cputime_delay_nsecs
                0x0000000000000000        0xc /home/crepel/Documents/EPFL/bluetooth_stuff/Link_layer_security/firmware_project/bin/targets/my_blinky_nordic/app/@apache-mynewt-core/kernel/os/@apache-mynewt-core_kernel_os.a(os_cputime.o)
 .text.os_cputime_delay_usecs
                0x0000000000000000        0x8 /home/crepel/Documents/EPFL/bluetooth_stuff/Link_layer_security/firmware_project/bin/targets/my_blinky_nordic/app/@apache-mynewt-core/kernel/os/@apache-mynewt-core_kernel_os.a(os_cputime.o)
 .text.os_cputime_timer_relative
                0x0000000000000000       0x2a /home/crepel/Documents/EPFL/bluetooth_stuff/Link_layer_security/firmware_project/bin/targets/my_blinky_nordic/app/@apache-mynewt-core/kernel/os/@apache-mynewt-core_kernel_os.a(os_cputime.o)
 .text          0x0000000000000000        0x0 /home/crepel/Documents/EPFL/bluetooth_stuff/Link_layer_security/firmware_project/bin/targets/my_blinky_nordic/app/@apache-mynewt-core/kernel/os/@apache-mynewt-core_kernel_os.a(os_cputime_1mhz.o)
 .data          0x0000000000000000        0x0 /home/crepel/Documents/EPFL/bluetooth_stuff/Link_layer_security/firmware_project/bin/targets/my_blinky_nordic/app/@apache-mynewt-core/kernel/os/@apache-mynewt-core_kernel_os.a(os_cputime_1mhz.o)
 .bss           0x0000000000000000        0x0 /home/crepel/Documents/EPFL/bluetooth_stuff/Link_layer_security/firmware_project/bin/targets/my_blinky_nordic/app/@apache-mynewt-core/kernel/os/@apache-mynewt-core_kernel_os.a(os_cputime_1mhz.o)
 .text.os_cputime_nsecs_to_ticks
                0x0000000000000000       0x14 /home/crepel/Documents/EPFL/bluetooth_stuff/Link_layer_security/firmware_project/bin/targets/my_blinky_nordic/app/@apache-mynewt-core/kernel/os/@apache-mynewt-core_kernel_os.a(os_cputime_1mhz.o)
 .text.os_cputime_ticks_to_nsecs
                0x0000000000000000        0xa /home/crepel/Documents/EPFL/bluetooth_stuff/Link_layer_security/firmware_project/bin/targets/my_blinky_nordic/app/@apache-mynewt-core/kernel/os/@apache-mynewt-core_kernel_os.a(os_cputime_1mhz.o)
 .debug_info    0x0000000000000000      0x655 /home/crepel/Documents/EPFL/bluetooth_stuff/Link_layer_security/firmware_project/bin/targets/my_blinky_nordic/app/@apache-mynewt-core/kernel/os/@apache-mynewt-core_kernel_os.a(os_cputime_1mhz.o)
 .debug_abbrev  0x0000000000000000      0x135 /home/crepel/Documents/EPFL/bluetooth_stuff/Link_layer_security/firmware_project/bin/targets/my_blinky_nordic/app/@apache-mynewt-core/kernel/os/@apache-mynewt-core_kernel_os.a(os_cputime_1mhz.o)
 .debug_loc     0x0000000000000000       0x50 /home/crepel/Documents/EPFL/bluetooth_stuff/Link_layer_security/firmware_project/bin/targets/my_blinky_nordic/app/@apache-mynewt-core/kernel/os/@apache-mynewt-core_kernel_os.a(os_cputime_1mhz.o)
 .debug_aranges
                0x0000000000000000       0x28 /home/crepel/Documents/EPFL/bluetooth_stuff/Link_layer_security/firmware_project/bin/targets/my_blinky_nordic/app/@apache-mynewt-core/kernel/os/@apache-mynewt-core_kernel_os.a(os_cputime_1mhz.o)
 .debug_ranges  0x0000000000000000       0x18 /home/crepel/Documents/EPFL/bluetooth_stuff/Link_layer_security/firmware_project/bin/targets/my_blinky_nordic/app/@apache-mynewt-core/kernel/os/@apache-mynewt-core_kernel_os.a(os_cputime_1mhz.o)
 .debug_line    0x0000000000000000      0x423 /home/crepel/Documents/EPFL/bluetooth_stuff/Link_layer_security/firmware_project/bin/targets/my_blinky_nordic/app/@apache-mynewt-core/kernel/os/@apache-mynewt-core_kernel_os.a(os_cputime_1mhz.o)
 .debug_str     0x0000000000000000      0x60f /home/crepel/Documents/EPFL/bluetooth_stuff/Link_layer_security/firmware_project/bin/targets/my_blinky_nordic/app/@apache-mynewt-core/kernel/os/@apache-mynewt-core_kernel_os.a(os_cputime_1mhz.o)
 .comment       0x0000000000000000       0x80 /home/crepel/Documents/EPFL/bluetooth_stuff/Link_layer_security/firmware_project/bin/targets/my_blinky_nordic/app/@apache-mynewt-core/kernel/os/@apache-mynewt-core_kernel_os.a(os_cputime_1mhz.o)
 .debug_frame   0x0000000000000000       0x30 /home/crepel/Documents/EPFL/bluetooth_stuff/Link_layer_security/firmware_project/bin/targets/my_blinky_nordic/app/@apache-mynewt-core/kernel/os/@apache-mynewt-core_kernel_os.a(os_cputime_1mhz.o)
 .ARM.attributes
                0x0000000000000000       0x33 /home/crepel/Documents/EPFL/bluetooth_stuff/Link_layer_security/firmware_project/bin/targets/my_blinky_nordic/app/@apache-mynewt-core/kernel/os/@apache-mynewt-core_kernel_os.a(os_cputime_1mhz.o)
 .text          0x0000000000000000        0x0 /home/crepel/Documents/EPFL/bluetooth_stuff/Link_layer_security/firmware_project/bin/targets/my_blinky_nordic/app/@apache-mynewt-core/libc/baselibc/@apache-mynewt-core_libc_baselibc.a(malloc.o)
 .data          0x0000000000000000        0x0 /home/crepel/Documents/EPFL/bluetooth_stuff/Link_layer_security/firmware_project/bin/targets/my_blinky_nordic/app/@apache-mynewt-core/libc/baselibc/@apache-mynewt-core_libc_baselibc.a(malloc.o)
 .bss           0x0000000000000000        0x0 /home/crepel/Documents/EPFL/bluetooth_stuff/Link_layer_security/firmware_project/bin/targets/my_blinky_nordic/app/@apache-mynewt-core/libc/baselibc/@apache-mynewt-core_libc_baselibc.a(malloc.o)
 .text.malloc_lock_nop
                0x0000000000000000        0x4 /home/crepel/Documents/EPFL/bluetooth_stuff/Link_layer_security/firmware_project/bin/targets/my_blinky_nordic/app/@apache-mynewt-core/libc/baselibc/@apache-mynewt-core_libc_baselibc.a(malloc.o)
 .text.malloc_unlock_nop
                0x0000000000000000        0x2 /home/crepel/Documents/EPFL/bluetooth_stuff/Link_layer_security/firmware_project/bin/targets/my_blinky_nordic/app/@apache-mynewt-core/libc/baselibc/@apache-mynewt-core_libc_baselibc.a(malloc.o)
 .text.__malloc_from_block
                0x0000000000000000       0x48 /home/crepel/Documents/EPFL/bluetooth_stuff/Link_layer_security/firmware_project/bin/targets/my_blinky_nordic/app/@apache-mynewt-core/libc/baselibc/@apache-mynewt-core_libc_baselibc.a(malloc.o)
 .text.__free_block
                0x0000000000000000       0x64 /home/crepel/Documents/EPFL/bluetooth_stuff/Link_layer_security/firmware_project/bin/targets/my_blinky_nordic/app/@apache-mynewt-core/libc/baselibc/@apache-mynewt-core_libc_baselibc.a(malloc.o)
 .text.add_malloc_block
                0x0000000000000000       0x50 /home/crepel/Documents/EPFL/bluetooth_stuff/Link_layer_security/firmware_project/bin/targets/my_blinky_nordic/app/@apache-mynewt-core/libc/baselibc/@apache-mynewt-core_libc_baselibc.a(malloc.o)
 .text.malloc   0x0000000000000000       0x6c /home/crepel/Documents/EPFL/bluetooth_stuff/Link_layer_security/firmware_project/bin/targets/my_blinky_nordic/app/@apache-mynewt-core/libc/baselibc/@apache-mynewt-core_libc_baselibc.a(malloc.o)
 .text.free     0x0000000000000000       0x2c /home/crepel/Documents/EPFL/bluetooth_stuff/Link_layer_security/firmware_project/bin/targets/my_blinky_nordic/app/@apache-mynewt-core/libc/baselibc/@apache-mynewt-core_libc_baselibc.a(malloc.o)
 .text.get_malloc_memory_status
                0x0000000000000000       0x4c /home/crepel/Documents/EPFL/bluetooth_stuff/Link_layer_security/firmware_project/bin/targets/my_blinky_nordic/app/@apache-mynewt-core/libc/baselibc/@apache-mynewt-core_libc_baselibc.a(malloc.o)
 .text.set_malloc_locking
                0x0000000000000000       0x30 /home/crepel/Documents/EPFL/bluetooth_stuff/Link_layer_security/firmware_project/bin/targets/my_blinky_nordic/app/@apache-mynewt-core/libc/baselibc/@apache-mynewt-core_libc_baselibc.a(malloc.o)
 .data.__malloc_head
                0x0000000000000000       0x18 /home/crepel/Documents/EPFL/bluetooth_stuff/Link_layer_security/firmware_project/bin/targets/my_blinky_nordic/app/@apache-mynewt-core/libc/baselibc/@apache-mynewt-core_libc_baselibc.a(malloc.o)
 .data.malloc_lock
                0x0000000000000000        0x4 /home/crepel/Documents/EPFL/bluetooth_stuff/Link_layer_security/firmware_project/bin/targets/my_blinky_nordic/app/@apache-mynewt-core/libc/baselibc/@apache-mynewt-core_libc_baselibc.a(malloc.o)
 .data.malloc_unlock
                0x0000000000000000        0x4 /home/crepel/Documents/EPFL/bluetooth_stuff/Link_layer_security/firmware_project/bin/targets/my_blinky_nordic/app/@apache-mynewt-core/libc/baselibc/@apache-mynewt-core_libc_baselibc.a(malloc.o)
 .debug_info    0x0000000000000000      0x5a2 /home/crepel/Documents/EPFL/bluetooth_stuff/Link_layer_security/firmware_project/bin/targets/my_blinky_nordic/app/@apache-mynewt-core/libc/baselibc/@apache-mynewt-core_libc_baselibc.a(malloc.o)
 .debug_abbrev  0x0000000000000000      0x27c /home/crepel/Documents/EPFL/bluetooth_stuff/Link_layer_security/firmware_project/bin/targets/my_blinky_nordic/app/@apache-mynewt-core/libc/baselibc/@apache-mynewt-core_libc_baselibc.a(malloc.o)
 .debug_loc     0x0000000000000000      0x3ab /home/crepel/Documents/EPFL/bluetooth_stuff/Link_layer_security/firmware_project/bin/targets/my_blinky_nordic/app/@apache-mynewt-core/libc/baselibc/@apache-mynewt-core_libc_baselibc.a(malloc.o)
 .debug_aranges
                0x0000000000000000       0x60 /home/crepel/Documents/EPFL/bluetooth_stuff/Link_layer_security/firmware_project/bin/targets/my_blinky_nordic/app/@apache-mynewt-core/libc/baselibc/@apache-mynewt-core_libc_baselibc.a(malloc.o)
 .debug_ranges  0x0000000000000000       0x50 /home/crepel/Documents/EPFL/bluetooth_stuff/Link_layer_security/firmware_project/bin/targets/my_blinky_nordic/app/@apache-mynewt-core/libc/baselibc/@apache-mynewt-core_libc_baselibc.a(malloc.o)
 .debug_line    0x0000000000000000      0x2fe /home/crepel/Documents/EPFL/bluetooth_stuff/Link_layer_security/firmware_project/bin/targets/my_blinky_nordic/app/@apache-mynewt-core/libc/baselibc/@apache-mynewt-core_libc_baselibc.a(malloc.o)
 .debug_str     0x0000000000000000      0x3cd /home/crepel/Documents/EPFL/bluetooth_stuff/Link_layer_security/firmware_project/bin/targets/my_blinky_nordic/app/@apache-mynewt-core/libc/baselibc/@apache-mynewt-core_libc_baselibc.a(malloc.o)
 .comment       0x0000000000000000       0x80 /home/crepel/Documents/EPFL/bluetooth_stuff/Link_layer_security/firmware_project/bin/targets/my_blinky_nordic/app/@apache-mynewt-core/libc/baselibc/@apache-mynewt-core_libc_baselibc.a(malloc.o)
 .debug_frame   0x0000000000000000       0xe8 /home/crepel/Documents/EPFL/bluetooth_stuff/Link_layer_security/firmware_project/bin/targets/my_blinky_nordic/app/@apache-mynewt-core/libc/baselibc/@apache-mynewt-core_libc_baselibc.a(malloc.o)
 .ARM.attributes
                0x0000000000000000       0x33 /home/crepel/Documents/EPFL/bluetooth_stuff/Link_layer_security/firmware_project/bin/targets/my_blinky_nordic/app/@apache-mynewt-core/libc/baselibc/@apache-mynewt-core_libc_baselibc.a(malloc.o)
 .text          0x0000000000000000        0x0 /home/crepel/Documents/EPFL/bluetooth_stuff/Link_layer_security/firmware_project/bin/targets/my_blinky_nordic/app/@apache-mynewt-core/hw/drivers/uart/uart_hal/@apache-mynewt-core_hw_drivers_uart_uart_hal.a(uart_hal.o)
 .data          0x0000000000000000        0x0 /home/crepel/Documents/EPFL/bluetooth_stuff/Link_layer_security/firmware_project/bin/targets/my_blinky_nordic/app/@apache-mynewt-core/hw/drivers/uart/uart_hal/@apache-mynewt-core_hw_drivers_uart_uart_hal.a(uart_hal.o)
 .bss           0x0000000000000000        0x0 /home/crepel/Documents/EPFL/bluetooth_stuff/Link_layer_security/firmware_project/bin/targets/my_blinky_nordic/app/@apache-mynewt-core/hw/drivers/uart/uart_hal/@apache-mynewt-core_hw_drivers_uart_uart_hal.a(uart_hal.o)
 .text          0x0000000000000000        0x0 /home/crepel/Documents/EPFL/bluetooth_stuff/Link_layer_security/firmware_project/bin/targets/my_blinky_nordic/app/@apache-mynewt-core/hw/mcu/nordic/nrf52xxx/@apache-mynewt-core_hw_mcu_nordic_nrf52xxx.a(hal_uart.o)
 .data          0x0000000000000000        0x0 /home/crepel/Documents/EPFL/bluetooth_stuff/Link_layer_security/firmware_project/bin/targets/my_blinky_nordic/app/@apache-mynewt-core/hw/mcu/nordic/nrf52xxx/@apache-mynewt-core_hw_mcu_nordic_nrf52xxx.a(hal_uart.o)
 .bss           0x0000000000000000        0x0 /home/crepel/Documents/EPFL/bluetooth_stuff/Link_layer_security/firmware_project/bin/targets/my_blinky_nordic/app/@apache-mynewt-core/hw/mcu/nordic/nrf52xxx/@apache-mynewt-core_hw_mcu_nordic_nrf52xxx.a(hal_uart.o)
 .text          0x0000000000000000       0x30 /usr/bin/../lib/gcc/arm-none-eabi/7.3.1/thumb/v7e-m/libgcc.a(_aeabi_uldivmod.o)
 .data          0x0000000000000000        0x0 /usr/bin/../lib/gcc/arm-none-eabi/7.3.1/thumb/v7e-m/libgcc.a(_aeabi_uldivmod.o)
 .bss           0x0000000000000000        0x0 /usr/bin/../lib/gcc/arm-none-eabi/7.3.1/thumb/v7e-m/libgcc.a(_aeabi_uldivmod.o)
 .debug_frame   0x0000000000000000       0x2c /usr/bin/../lib/gcc/arm-none-eabi/7.3.1/thumb/v7e-m/libgcc.a(_aeabi_uldivmod.o)
 .ARM.attributes
                0x0000000000000000       0x1e /usr/bin/../lib/gcc/arm-none-eabi/7.3.1/thumb/v7e-m/libgcc.a(_aeabi_uldivmod.o)
 .text          0x0000000000000000      0x2cc /usr/bin/../lib/gcc/arm-none-eabi/7.3.1/thumb/v7e-m/libgcc.a(_udivmoddi4.o)
 .data          0x0000000000000000        0x0 /usr/bin/../lib/gcc/arm-none-eabi/7.3.1/thumb/v7e-m/libgcc.a(_udivmoddi4.o)
 .bss           0x0000000000000000        0x0 /usr/bin/../lib/gcc/arm-none-eabi/7.3.1/thumb/v7e-m/libgcc.a(_udivmoddi4.o)
 .ARM.extab     0x0000000000000000        0x0 /usr/bin/../lib/gcc/arm-none-eabi/7.3.1/thumb/v7e-m/libgcc.a(_udivmoddi4.o)
 .ARM.exidx     0x0000000000000000        0x8 /usr/bin/../lib/gcc/arm-none-eabi/7.3.1/thumb/v7e-m/libgcc.a(_udivmoddi4.o)
 .debug_frame   0x0000000000000000       0x34 /usr/bin/../lib/gcc/arm-none-eabi/7.3.1/thumb/v7e-m/libgcc.a(_udivmoddi4.o)
 .ARM.attributes
                0x0000000000000000       0x2e /usr/bin/../lib/gcc/arm-none-eabi/7.3.1/thumb/v7e-m/libgcc.a(_udivmoddi4.o)
 .text          0x0000000000000000        0x4 /usr/bin/../lib/gcc/arm-none-eabi/7.3.1/thumb/v7e-m/libgcc.a(_dvmd_tls.o)
 .data          0x0000000000000000        0x0 /usr/bin/../lib/gcc/arm-none-eabi/7.3.1/thumb/v7e-m/libgcc.a(_dvmd_tls.o)
 .bss           0x0000000000000000        0x0 /usr/bin/../lib/gcc/arm-none-eabi/7.3.1/thumb/v7e-m/libgcc.a(_dvmd_tls.o)
 .ARM.attributes
                0x0000000000000000       0x1e /usr/bin/../lib/gcc/arm-none-eabi/7.3.1/thumb/v7e-m/libgcc.a(_dvmd_tls.o)

Memory Configuration

Name             Origin             Length             Attributes
FLASH            0x000000000000c000 0x0000000000076000 xr
RAM              0x0000000020000000 0x0000000000040000 xrw
*default*        0x0000000000000000 0xffffffffffffffff

Linker script and memory map

START GROUP
LOAD /home/crepel/Documents/EPFL/bluetooth_stuff/Link_layer_security/firmware_project/bin/targets/my_blinky_nordic/app/@apache-mynewt-core/hw/bsp/nordic_pca10056/@apache-mynewt-core_hw_bsp_nordic_pca10056.a
LOAD /home/crepel/Documents/EPFL/bluetooth_stuff/Link_layer_security/firmware_project/bin/targets/my_blinky_nordic/app/@apache-mynewt-core/hw/cmsis-core/@apache-mynewt-core_hw_cmsis-core.a
LOAD /home/crepel/Documents/EPFL/bluetooth_stuff/Link_layer_security/firmware_project/bin/targets/my_blinky_nordic/app/@apache-mynewt-core/hw/drivers/uart/@apache-mynewt-core_hw_drivers_uart.a
LOAD /home/crepel/Documents/EPFL/bluetooth_stuff/Link_layer_security/firmware_project/bin/targets/my_blinky_nordic/app/@apache-mynewt-core/hw/drivers/uart/uart_hal/@apache-mynewt-core_hw_drivers_uart_uart_hal.a
LOAD /home/crepel/Documents/EPFL/bluetooth_stuff/Link_layer_security/firmware_project/bin/targets/my_blinky_nordic/app/@apache-mynewt-core/hw/hal/@apache-mynewt-core_hw_hal.a
LOAD /home/crepel/Documents/EPFL/bluetooth_stuff/Link_layer_security/firmware_project/bin/targets/my_blinky_nordic/app/@apache-mynewt-core/hw/mcu/nordic/@apache-mynewt-core_hw_mcu_nordic.a
LOAD /home/crepel/Documents/EPFL/bluetooth_stuff/Link_layer_security/firmware_project/bin/targets/my_blinky_nordic/app/@apache-mynewt-core/hw/mcu/nordic/nrf52xxx/@apache-mynewt-core_hw_mcu_nordic_nrf52xxx.a
LOAD /home/crepel/Documents/EPFL/bluetooth_stuff/Link_layer_security/firmware_project/bin/targets/my_blinky_nordic/app/@apache-mynewt-core/kernel/os/@apache-mynewt-core_kernel_os.a
LOAD /home/crepel/Documents/EPFL/bluetooth_stuff/Link_layer_security/firmware_project/bin/targets/my_blinky_nordic/app/@apache-mynewt-core/libc/baselibc/@apache-mynewt-core_libc_baselibc.a
LOAD /home/crepel/Documents/EPFL/bluetooth_stuff/Link_layer_security/firmware_project/bin/targets/my_blinky_nordic/app/@apache-mynewt-core/sys/flash_map/@apache-mynewt-core_sys_flash_map.a
LOAD /home/crepel/Documents/EPFL/bluetooth_stuff/Link_layer_security/firmware_project/bin/targets/my_blinky_nordic/app/@apache-mynewt-core/sys/log/modlog/@apache-mynewt-core_sys_log_modlog.a
LOAD /home/crepel/Documents/EPFL/bluetooth_stuff/Link_layer_security/firmware_project/bin/targets/my_blinky_nordic/app/@apache-mynewt-core/sys/log/stub/@apache-mynewt-core_sys_log_stub.a
LOAD /home/crepel/Documents/EPFL/bluetooth_stuff/Link_layer_security/firmware_project/bin/targets/my_blinky_nordic/app/@apache-mynewt-core/sys/mfg/@apache-mynewt-core_sys_mfg.a
LOAD /home/crepel/Documents/EPFL/bluetooth_stuff/Link_layer_security/firmware_project/bin/targets/my_blinky_nordic/app/@apache-mynewt-core/sys/sysdown/@apache-mynewt-core_sys_sysdown.a
LOAD /home/crepel/Documents/EPFL/bluetooth_stuff/Link_layer_security/firmware_project/bin/targets/my_blinky_nordic/app/@apache-mynewt-core/sys/sysinit/@apache-mynewt-core_sys_sysinit.a
LOAD /home/crepel/Documents/EPFL/bluetooth_stuff/Link_layer_security/firmware_project/bin/targets/my_blinky_nordic/app/@apache-mynewt-core/util/mem/@apache-mynewt-core_util_mem.a
LOAD /home/crepel/Documents/EPFL/bluetooth_stuff/Link_layer_security/firmware_project/bin/targets/my_blinky_nordic/app/@apache-mynewt-core/util/rwlock/@apache-mynewt-core_util_rwlock.a
LOAD /home/crepel/Documents/EPFL/bluetooth_stuff/Link_layer_security/firmware_project/bin/targets/my_blinky_nordic/app/apps/blinky/apps_blinky.a
LOAD /home/crepel/Documents/EPFL/bluetooth_stuff/Link_layer_security/firmware_project/bin/targets/my_blinky_nordic/generated/bin/my_blinky_nordic-sysinit-app.a
END GROUP
LOAD /usr/bin/../lib/gcc/arm-none-eabi/7.3.1/thumb/v7e-m/libgcc.a
START GROUP
LOAD /usr/bin/../lib/gcc/arm-none-eabi/7.3.1/thumb/v7e-m/libgcc.a
LOAD /usr/bin/../lib/gcc/arm-none-eabi/7.3.1/../../../../arm-none-eabi/lib/thumb/v7e-m/libg.a
LOAD /usr/bin/../lib/gcc/arm-none-eabi/7.3.1/../../../../arm-none-eabi/lib/thumb/v7e-m/libc.a
END GROUP
START GROUP
LOAD /usr/bin/../lib/gcc/arm-none-eabi/7.3.1/thumb/v7e-m/libgcc.a
LOAD /usr/bin/../lib/gcc/arm-none-eabi/7.3.1/../../../../arm-none-eabi/lib/thumb/v7e-m/libc.a
LOAD /usr/bin/../lib/gcc/arm-none-eabi/7.3.1/../../../../arm-none-eabi/lib/thumb/v7e-m/libnosys.a
END GROUP
                0x0000000000000020                _imghdr_size = 0x20

.imghdr         0x000000000000c000       0x20
                0x000000000000c020                . = (. + _imghdr_size)
 *fill*         0x000000000000c000       0x20 
                0x000000000000c020                __text = .

.text           0x000000000000c020     0x2c84
                0x000000000000c020                __isr_vector_start = .
 *(.isr_vector)
 .isr_vector    0x000000000000c020      0x100 /home/crepel/Documents/EPFL/bluetooth_stuff/Link_layer_security/firmware_project/bin/targets/my_blinky_nordic/app/@apache-mynewt-core/hw/bsp/nordic_pca10056/@apache-mynewt-core_hw_bsp_nordic_pca10056.a(gcc_startup_nrf52840.o)
                0x000000000000c020                __isr_vector
                0x000000000000c120                __isr_vector_end = .
 *(.text*)
 .text          0x000000000000c120       0x70 /home/crepel/Documents/EPFL/bluetooth_stuff/Link_layer_security/firmware_project/bin/targets/my_blinky_nordic/app/@apache-mynewt-core/hw/bsp/nordic_pca10056/@apache-mynewt-core_hw_bsp_nordic_pca10056.a(gcc_startup_nrf52840.o)
                0x000000000000c120                Reset_Handler
                0x000000000000c17c                NMI_Handler
                0x000000000000c17e                HardFault_Handler
                0x000000000000c180                MemoryManagement_Handler
                0x000000000000c182                BusFault_Handler
                0x000000000000c184                UsageFault_Handler
                0x000000000000c188                DebugMon_Handler
                0x000000000000c18e                TIMER2_IRQHandler
                0x000000000000c18e                RTC0_IRQHandler
                0x000000000000c18e                SWI0_EGU0_IRQHandler
                0x000000000000c18e                SWI2_EGU2_IRQHandler
                0x000000000000c18e                GPIOTE_IRQHandler
                0x000000000000c18e                PWM1_IRQHandler
                0x000000000000c18e                POWER_CLOCK_IRQHandler
                0x000000000000c18e                RADIO_IRQHandler
                0x000000000000c18e                PDM_IRQHandler
                0x000000000000c18e                TEMP_IRQHandler
                0x000000000000c18e                QDEC_IRQHandler
                0x000000000000c18e                TIMER3_IRQHandler
                0x000000000000c18e                PWM3_IRQHandler
                0x000000000000c18e                FPU_IRQHandler
                0x000000000000c18e                USBD_IRQHandler
                0x000000000000c18e                SPIM0_SPIS0_TWIM0_TWIS0_SPI0_TWI0_IRQHandler
                0x000000000000c18e                UARTE0_UART0_IRQHandler
                0x000000000000c18e                TIMER4_IRQHandler
                0x000000000000c18e                CRYPTOCELL_IRQHandler
                0x000000000000c18e                I2S_IRQHandler
                0x000000000000c18e                SWI4_EGU4_IRQHandler
                0x000000000000c18e                TIMER0_IRQHandler
                0x000000000000c18e                UARTE1_IRQHandler
                0x000000000000c18e                TIMER1_IRQHandler
                0x000000000000c18e                SPIM3_IRQHandler
                0x000000000000c18e                PWM2_IRQHandler
                0x000000000000c18e                ECB_IRQHandler
                0x000000000000c18e                SPIM1_SPIS1_TWIM1_TWIS1_SPI1_TWI1_IRQHandler
                0x000000000000c18e                Default_Handler
                0x000000000000c18e                SAADC_IRQHandler
                0x000000000000c18e                CCM_AAR_IRQHandler
                0x000000000000c18e                WDT_IRQHandler
                0x000000000000c18e                SWI5_EGU5_IRQHandler
                0x000000000000c18e                RNG_IRQHandler
                0x000000000000c18e                RTC2_IRQHandler
                0x000000000000c18e                PWM0_IRQHandler
                0x000000000000c18e                SWI3_EGU3_IRQHandler
                0x000000000000c18e                RTC1_IRQHandler
                0x000000000000c18e                SWI1_EGU1_IRQHandler
                0x000000000000c18e                SPIM2_SPIS2_SPI2_IRQHandler
                0x000000000000c18e                NFCT_IRQHandler
                0x000000000000c18e                MWU_IRQHandler
                0x000000000000c18e                QSPI_IRQHandler
                0x000000000000c18e                COMP_LPCOMP_IRQHandler
 .text._sbrkInit
                0x000000000000c190       0x10 /home/crepel/Documents/EPFL/bluetooth_stuff/Link_layer_security/firmware_project/bin/targets/my_blinky_nordic/app/@apache-mynewt-core/hw/bsp/nordic_pca10056/@apache-mynewt-core_hw_bsp_nordic_pca10056.a(sbrk.o)
                0x000000000000c190                _sbrkInit
 .text.hal_system_init
                0x000000000000c1a0        0xc /home/crepel/Documents/EPFL/bluetooth_stuff/Link_layer_security/firmware_project/bin/targets/my_blinky_nordic/app/@apache-mynewt-core/hw/mcu/nordic/nrf52xxx/@apache-mynewt-core_hw_mcu_nordic_nrf52xxx.a(hal_system.o)
                0x000000000000c1a0                hal_system_init
 .text.hal_debugger_connected
                0x000000000000c1ac       0x10 /home/crepel/Documents/EPFL/bluetooth_stuff/Link_layer_security/firmware_project/bin/targets/my_blinky_nordic/app/@apache-mynewt-core/hw/mcu/nordic/nrf52xxx/@apache-mynewt-core_hw_mcu_nordic_nrf52xxx.a(hal_system.o)
                0x000000000000c1ac                hal_debugger_connected
 .text.hal_system_reset
                0x000000000000c1bc       0x2c /home/crepel/Documents/EPFL/bluetooth_stuff/Link_layer_security/firmware_project/bin/targets/my_blinky_nordic/app/@apache-mynewt-core/hw/mcu/nordic/nrf52xxx/@apache-mynewt-core_hw_mcu_nordic_nrf52xxx.a(hal_system.o)
                0x000000000000c1bc                hal_system_reset
 .text.hal_system_clock_start
                0x000000000000c1e8       0x4c /home/crepel/Documents/EPFL/bluetooth_stuff/Link_layer_security/firmware_project/bin/targets/my_blinky_nordic/app/@apache-mynewt-core/hw/mcu/nordic/nrf52xxx/@apache-mynewt-core_hw_mcu_nordic_nrf52xxx.a(hal_system.o)
                0x000000000000c1e8                hal_system_clock_start
 .text.errata_36
                0x000000000000c234       0x24 /home/crepel/Documents/EPFL/bluetooth_stuff/Link_layer_security/firmware_project/bin/targets/my_blinky_nordic/app/@apache-mynewt-core/hw/mcu/nordic/nrf52xxx/@apache-mynewt-core_hw_mcu_nordic_nrf52xxx.a(system_nrf52.o)
 .text.errata_98
                0x000000000000c258       0x24 /home/crepel/Documents/EPFL/bluetooth_stuff/Link_layer_security/firmware_project/bin/targets/my_blinky_nordic/app/@apache-mynewt-core/hw/mcu/nordic/nrf52xxx/@apache-mynewt-core_hw_mcu_nordic_nrf52xxx.a(system_nrf52.o)
 .text.errata_103
                0x000000000000c27c       0x24 /home/crepel/Documents/EPFL/bluetooth_stuff/Link_layer_security/firmware_project/bin/targets/my_blinky_nordic/app/@apache-mynewt-core/hw/mcu/nordic/nrf52xxx/@apache-mynewt-core_hw_mcu_nordic_nrf52xxx.a(system_nrf52.o)
 .text.errata_115
                0x000000000000c2a0       0x24 /home/crepel/Documents/EPFL/bluetooth_stuff/Link_layer_security/firmware_project/bin/targets/my_blinky_nordic/app/@apache-mynewt-core/hw/mcu/nordic/nrf52xxx/@apache-mynewt-core_hw_mcu_nordic_nrf52xxx.a(system_nrf52.o)
 .text.errata_120
                0x000000000000c2c4       0x24 /home/crepel/Documents/EPFL/bluetooth_stuff/Link_layer_security/firmware_project/bin/targets/my_blinky_nordic/app/@apache-mynewt-core/hw/mcu/nordic/nrf52xxx/@apache-mynewt-core_hw_mcu_nordic_nrf52xxx.a(system_nrf52.o)
 .text.errata_121
                0x000000000000c2e8       0x24 /home/crepel/Documents/EPFL/bluetooth_stuff/Link_layer_security/firmware_project/bin/targets/my_blinky_nordic/app/@apache-mynewt-core/hw/mcu/nordic/nrf52xxx/@apache-mynewt-core_hw_mcu_nordic_nrf52xxx.a(system_nrf52.o)
 .text.SystemCoreClockUpdate
                0x000000000000c30c       0x10 /home/crepel/Documents/EPFL/bluetooth_stuff/Link_layer_security/firmware_project/bin/targets/my_blinky_nordic/app/@apache-mynewt-core/hw/mcu/nordic/nrf52xxx/@apache-mynewt-core_hw_mcu_nordic_nrf52xxx.a(system_nrf52.o)
                0x000000000000c30c                SystemCoreClockUpdate
 .text.SystemInit
                0x000000000000c31c      0x104 /home/crepel/Documents/EPFL/bluetooth_stuff/Link_layer_security/firmware_project/bin/targets/my_blinky_nordic/app/@apache-mynewt-core/hw/mcu/nordic/nrf52xxx/@apache-mynewt-core_hw_mcu_nordic_nrf52xxx.a(system_nrf52.o)
                0x000000000000c31c                SystemInit
 .text._start   0x000000000000c420       0x14 /home/crepel/Documents/EPFL/bluetooth_stuff/Link_layer_security/firmware_project/bin/targets/my_blinky_nordic/app/@apache-mynewt-core/libc/baselibc/@apache-mynewt-core_libc_baselibc.a(start.o)
                0x000000000000c420                _start
 .text._init    0x000000000000c434        0x2 /home/crepel/Documents/EPFL/bluetooth_stuff/Link_layer_security/firmware_project/bin/targets/my_blinky_nordic/app/@apache-mynewt-core/libc/baselibc/@apache-mynewt-core_libc_baselibc.a(start.o)
                0x000000000000c434                _init
 *fill*         0x000000000000c436        0x2 
 .text.main     0x000000000000c438       0x54 /home/crepel/Documents/EPFL/bluetooth_stuff/Link_layer_security/firmware_project/bin/targets/my_blinky_nordic/app/apps/blinky/apps_blinky.a(main.o)
                0x000000000000c438                main
 .text.sysinit_app
                0x000000000000c48c       0x14 /home/crepel/Documents/EPFL/bluetooth_stuff/Link_layer_security/firmware_project/bin/targets/my_blinky_nordic/generated/bin/my_blinky_nordic-sysinit-app.a(my_blinky_nordic-sysinit-app.o)
                0x000000000000c48c                sysinit_app
 .text.NVIC_Relocate
                0x000000000000c4a0       0x34 /home/crepel/Documents/EPFL/bluetooth_stuff/Link_layer_security/firmware_project/bin/targets/my_blinky_nordic/app/@apache-mynewt-core/hw/cmsis-core/@apache-mynewt-core_hw_cmsis-core.a(cmsis_nvic.o)
                0x000000000000c4a0                NVIC_Relocate
 .text.hal_gpio_init_out
                0x000000000000c4d4       0x44 /home/crepel/Documents/EPFL/bluetooth_stuff/Link_layer_security/firmware_project/bin/targets/my_blinky_nordic/app/@apache-mynewt-core/hw/mcu/nordic/nrf52xxx/@apache-mynewt-core_hw_mcu_nordic_nrf52xxx.a(hal_gpio.o)
                0x000000000000c4d4                hal_gpio_init_out
 .text.hal_gpio_write
                0x000000000000c518       0x34 /home/crepel/Documents/EPFL/bluetooth_stuff/Link_layer_security/firmware_project/bin/targets/my_blinky_nordic/app/@apache-mynewt-core/hw/mcu/nordic/nrf52xxx/@apache-mynewt-core_hw_mcu_nordic_nrf52xxx.a(hal_gpio.o)
                0x000000000000c518                hal_gpio_write
 .text.hal_gpio_read
                0x000000000000c54c       0x3c /home/crepel/Documents/EPFL/bluetooth_stuff/Link_layer_security/firmware_project/bin/targets/my_blinky_nordic/app/@apache-mynewt-core/hw/mcu/nordic/nrf52xxx/@apache-mynewt-core_hw_mcu_nordic_nrf52xxx.a(hal_gpio.o)
                0x000000000000c54c                hal_gpio_read
 .text.hal_gpio_toggle
                0x000000000000c588       0x1a /home/crepel/Documents/EPFL/bluetooth_stuff/Link_layer_security/firmware_project/bin/targets/my_blinky_nordic/app/@apache-mynewt-core/hw/mcu/nordic/nrf52xxx/@apache-mynewt-core_hw_mcu_nordic_nrf52xxx.a(hal_gpio.o)
                0x000000000000c588                hal_gpio_toggle
 *fill*         0x000000000000c5a2        0x2 
 .text.os_idle_task
                0x000000000000c5a4       0x84 /home/crepel/Documents/EPFL/bluetooth_stuff/Link_layer_security/firmware_project/bin/targets/my_blinky_nordic/app/@apache-mynewt-core/kernel/os/@apache-mynewt-core_kernel_os.a(os.o)
                0x000000000000c5a4                os_idle_task
 .text.os_main  0x000000000000c628       0x1e /home/crepel/Documents/EPFL/bluetooth_stuff/Link_layer_security/firmware_project/bin/targets/my_blinky_nordic/app/@apache-mynewt-core/kernel/os/@apache-mynewt-core_kernel_os.a(os.o)
 *fill*         0x000000000000c646        0x2 
 .text.os_started
                0x000000000000c648        0xc /home/crepel/Documents/EPFL/bluetooth_stuff/Link_layer_security/firmware_project/bin/targets/my_blinky_nordic/app/@apache-mynewt-core/kernel/os/@apache-mynewt-core_kernel_os.a(os.o)
                0x000000000000c648                os_started
 .text.os_init_idle_task
                0x000000000000c654       0x88 /home/crepel/Documents/EPFL/bluetooth_stuff/Link_layer_security/firmware_project/bin/targets/my_blinky_nordic/app/@apache-mynewt-core/kernel/os/@apache-mynewt-core_kernel_os.a(os.o)
                0x000000000000c654                os_init_idle_task
 .text.os_init  0x000000000000c6dc       0xd0 /home/crepel/Documents/EPFL/bluetooth_stuff/Link_layer_security/firmware_project/bin/targets/my_blinky_nordic/app/@apache-mynewt-core/kernel/os/@apache-mynewt-core_kernel_os.a(os.o)
                0x000000000000c6dc                os_init
 .text.os_start
                0x000000000000c7ac       0x22 /home/crepel/Documents/EPFL/bluetooth_stuff/Link_layer_security/firmware_project/bin/targets/my_blinky_nordic/app/@apache-mynewt-core/kernel/os/@apache-mynewt-core_kernel_os.a(os.o)
                0x000000000000c7ac                os_start
 *fill*         0x000000000000c7ce        0x2 
 .text.os_pkg_init
                0x000000000000c7d0       0x48 /home/crepel/Documents/EPFL/bluetooth_stuff/Link_layer_security/firmware_project/bin/targets/my_blinky_nordic/app/@apache-mynewt-core/kernel/os/@apache-mynewt-core_kernel_os.a(os.o)
                0x000000000000c7d0                os_pkg_init
 .text.os_callout_tick
                0x000000000000c818       0x5c /home/crepel/Documents/EPFL/bluetooth_stuff/Link_layer_security/firmware_project/bin/targets/my_blinky_nordic/app/@apache-mynewt-core/kernel/os/@apache-mynewt-core_kernel_os.a(os_callout.o)
                0x000000000000c818                os_callout_tick
 .text.os_callout_wakeup_ticks
                0x000000000000c874       0x3c /home/crepel/Documents/EPFL/bluetooth_stuff/Link_layer_security/firmware_project/bin/targets/my_blinky_nordic/app/@apache-mynewt-core/kernel/os/@apache-mynewt-core_kernel_os.a(os_callout.o)
                0x000000000000c874                os_callout_wakeup_ticks
 .text.os_dev_add
                0x000000000000c8b0       0x5c /home/crepel/Documents/EPFL/bluetooth_stuff/Link_layer_security/firmware_project/bin/targets/my_blinky_nordic/app/@apache-mynewt-core/kernel/os/@apache-mynewt-core_kernel_os.a(os_dev.o)
 .text.os_dev_initialize
                0x000000000000c90c       0x26 /home/crepel/Documents/EPFL/bluetooth_stuff/Link_layer_security/firmware_project/bin/targets/my_blinky_nordic/app/@apache-mynewt-core/kernel/os/@apache-mynewt-core_kernel_os.a(os_dev.o)
 .text.os_dev_init
                0x000000000000c932       0x20 /home/crepel/Documents/EPFL/bluetooth_stuff/Link_layer_security/firmware_project/bin/targets/my_blinky_nordic/app/@apache-mynewt-core/kernel/os/@apache-mynewt-core_kernel_os.a(os_dev.o)
 *fill*         0x000000000000c952        0x2 
 .text.os_dev_create
                0x000000000000c954       0x40 /home/crepel/Documents/EPFL/bluetooth_stuff/Link_layer_security/firmware_project/bin/targets/my_blinky_nordic/app/@apache-mynewt-core/kernel/os/@apache-mynewt-core_kernel_os.a(os_dev.o)
                0x000000000000c954                os_dev_create
 .text.os_dev_initialize_all
                0x000000000000c994       0x2c /home/crepel/Documents/EPFL/bluetooth_stuff/Link_layer_security/firmware_project/bin/targets/my_blinky_nordic/app/@apache-mynewt-core/kernel/os/@apache-mynewt-core_kernel_os.a(os_dev.o)
                0x000000000000c994                os_dev_initialize_all
 .text.os_dev_reset
                0x000000000000c9c0       0x10 /home/crepel/Documents/EPFL/bluetooth_stuff/Link_layer_security/firmware_project/bin/targets/my_blinky_nordic/app/@apache-mynewt-core/kernel/os/@apache-mynewt-core_kernel_os.a(os_dev.o)
                0x000000000000c9c0                os_dev_reset
 .text.os_eventq_init
                0x000000000000c9d0       0x10 /home/crepel/Documents/EPFL/bluetooth_stuff/Link_layer_security/firmware_project/bin/targets/my_blinky_nordic/app/@apache-mynewt-core/kernel/os/@apache-mynewt-core_kernel_os.a(os_eventq.o)
                0x000000000000c9d0                os_eventq_init
 .text.os_eventq_inited
                0x000000000000c9e0        0xa /home/crepel/Documents/EPFL/bluetooth_stuff/Link_layer_security/firmware_project/bin/targets/my_blinky_nordic/app/@apache-mynewt-core/kernel/os/@apache-mynewt-core_kernel_os.a(os_eventq.o)
                0x000000000000c9e0                os_eventq_inited
 .text.os_eventq_put
                0x000000000000c9ea       0x70 /home/crepel/Documents/EPFL/bluetooth_stuff/Link_layer_security/firmware_project/bin/targets/my_blinky_nordic/app/@apache-mynewt-core/kernel/os/@apache-mynewt-core_kernel_os.a(os_eventq.o)
                0x000000000000c9ea                os_eventq_put
 *fill*         0x000000000000ca5a        0x2 
 .text.os_eventq_dflt_get
                0x000000000000ca5c        0x8 /home/crepel/Documents/EPFL/bluetooth_stuff/Link_layer_security/firmware_project/bin/targets/my_blinky_nordic/app/@apache-mynewt-core/kernel/os/@apache-mynewt-core_kernel_os.a(os_eventq.o)
                0x000000000000ca5c                os_eventq_dflt_get
 .text.os_mempool_init_internal
                0x000000000000ca64       0x78 /home/crepel/Documents/EPFL/bluetooth_stuff/Link_layer_security/firmware_project/bin/targets/my_blinky_nordic/app/@apache-mynewt-core/kernel/os/@apache-mynewt-core_kernel_os.a(os_mempool.o)
 .text.os_mempool_init
                0x000000000000cadc       0x14 /home/crepel/Documents/EPFL/bluetooth_stuff/Link_layer_security/firmware_project/bin/targets/my_blinky_nordic/app/@apache-mynewt-core/kernel/os/@apache-mynewt-core_kernel_os.a(os_mempool.o)
                0x000000000000cadc                os_mempool_init
 .text.os_mempool_module_init
                0x000000000000caf0       0x10 /home/crepel/Documents/EPFL/bluetooth_stuff/Link_layer_security/firmware_project/bin/targets/my_blinky_nordic/app/@apache-mynewt-core/kernel/os/@apache-mynewt-core_kernel_os.a(os_mempool.o)
                0x000000000000caf0                os_mempool_module_init
 .text.os_msys_register
                0x000000000000cb00       0x4c /home/crepel/Documents/EPFL/bluetooth_stuff/Link_layer_security/firmware_project/bin/targets/my_blinky_nordic/app/@apache-mynewt-core/kernel/os/@apache-mynewt-core_kernel_os.a(os_msys.o)
                0x000000000000cb00                os_msys_register
 .text.os_msys_init_once
                0x000000000000cb4c       0x58 /home/crepel/Documents/EPFL/bluetooth_stuff/Link_layer_security/firmware_project/bin/targets/my_blinky_nordic/app/@apache-mynewt-core/kernel/os/@apache-mynewt-core_kernel_os.a(os_msys.o)
 .text.os_msys_reset
                0x000000000000cba4       0x10 /home/crepel/Documents/EPFL/bluetooth_stuff/Link_layer_security/firmware_project/bin/targets/my_blinky_nordic/app/@apache-mynewt-core/kernel/os/@apache-mynewt-core_kernel_os.a(os_msys.o)
                0x000000000000cba4                os_msys_reset
 .text.os_msys_init
                0x000000000000cbb4       0x34 /home/crepel/Documents/EPFL/bluetooth_stuff/Link_layer_security/firmware_project/bin/targets/my_blinky_nordic/app/@apache-mynewt-core/kernel/os/@apache-mynewt-core_kernel_os.a(os_msys.o)
                0x000000000000cbb4                os_msys_init
 .text.os_sanity_check_list_lock
                0x000000000000cbe8       0x20 /home/crepel/Documents/EPFL/bluetooth_stuff/Link_layer_security/firmware_project/bin/targets/my_blinky_nordic/app/@apache-mynewt-core/kernel/os/@apache-mynewt-core_kernel_os.a(os_sanity.o)
 .text.os_sanity_check_list_unlock
                0x000000000000cc08       0x1c /home/crepel/Documents/EPFL/bluetooth_stuff/Link_layer_security/firmware_project/bin/targets/my_blinky_nordic/app/@apache-mynewt-core/kernel/os/@apache-mynewt-core_kernel_os.a(os_sanity.o)
 .text.os_sanity_check_init
                0x000000000000cc24       0x10 /home/crepel/Documents/EPFL/bluetooth_stuff/Link_layer_security/firmware_project/bin/targets/my_blinky_nordic/app/@apache-mynewt-core/kernel/os/@apache-mynewt-core_kernel_os.a(os_sanity.o)
                0x000000000000cc24                os_sanity_check_init
 .text.os_sanity_check_register
                0x000000000000cc34       0x24 /home/crepel/Documents/EPFL/bluetooth_stuff/Link_layer_security/firmware_project/bin/targets/my_blinky_nordic/app/@apache-mynewt-core/kernel/os/@apache-mynewt-core_kernel_os.a(os_sanity.o)
                0x000000000000cc34                os_sanity_check_register
 .text.os_sanity_run
                0x000000000000cc58       0x84 /home/crepel/Documents/EPFL/bluetooth_stuff/Link_layer_security/firmware_project/bin/targets/my_blinky_nordic/app/@apache-mynewt-core/kernel/os/@apache-mynewt-core_kernel_os.a(os_sanity.o)
                0x000000000000cc58                os_sanity_run
 .text.os_sanity_init
                0x000000000000ccdc       0x10 /home/crepel/Documents/EPFL/bluetooth_stuff/Link_layer_security/firmware_project/bin/targets/my_blinky_nordic/app/@apache-mynewt-core/kernel/os/@apache-mynewt-core_kernel_os.a(os_sanity.o)
                0x000000000000ccdc                os_sanity_init
 .text.os_sched_insert
                0x000000000000ccec       0x54 /home/crepel/Documents/EPFL/bluetooth_stuff/Link_layer_security/firmware_project/bin/targets/my_blinky_nordic/app/@apache-mynewt-core/kernel/os/@apache-mynewt-core_kernel_os.a(os_sched.o)
                0x000000000000ccec                os_sched_insert
 .text.os_sched_ctx_sw_hook
                0x000000000000cd40       0x30 /home/crepel/Documents/EPFL/bluetooth_stuff/Link_layer_security/firmware_project/bin/targets/my_blinky_nordic/app/@apache-mynewt-core/kernel/os/@apache-mynewt-core_kernel_os.a(os_sched.o)
                0x000000000000cd40                os_sched_ctx_sw_hook
 .text.os_sched_get_current_task
                0x000000000000cd70        0xc /home/crepel/Documents/EPFL/bluetooth_stuff/Link_layer_security/firmware_project/bin/targets/my_blinky_nordic/app/@apache-mynewt-core/kernel/os/@apache-mynewt-core_kernel_os.a(os_sched.o)
                0x000000000000cd70                os_sched_get_current_task
 .text.os_sched_set_current_task
                0x000000000000cd7c        0xc /home/crepel/Documents/EPFL/bluetooth_stuff/Link_layer_security/firmware_project/bin/targets/my_blinky_nordic/app/@apache-mynewt-core/kernel/os/@apache-mynewt-core_kernel_os.a(os_sched.o)
                0x000000000000cd7c                os_sched_set_current_task
 .text.os_sched_sleep
                0x000000000000cd88       0x90 /home/crepel/Documents/EPFL/bluetooth_stuff/Link_layer_security/firmware_project/bin/targets/my_blinky_nordic/app/@apache-mynewt-core/kernel/os/@apache-mynewt-core_kernel_os.a(os_sched.o)
                0x000000000000cd88                os_sched_sleep
 .text.os_sched_wakeup
                0x000000000000ce18       0x88 /home/crepel/Documents/EPFL/bluetooth_stuff/Link_layer_security/firmware_project/bin/targets/my_blinky_nordic/app/@apache-mynewt-core/kernel/os/@apache-mynewt-core_kernel_os.a(os_sched.o)
                0x000000000000ce18                os_sched_wakeup
 .text.os_sched_os_timer_exp
                0x000000000000cea0       0x3c /home/crepel/Documents/EPFL/bluetooth_stuff/Link_layer_security/firmware_project/bin/targets/my_blinky_nordic/app/@apache-mynewt-core/kernel/os/@apache-mynewt-core_kernel_os.a(os_sched.o)
                0x000000000000cea0                os_sched_os_timer_exp
 .text.os_sched_wakeup_ticks
                0x000000000000cedc       0x48 /home/crepel/Documents/EPFL/bluetooth_stuff/Link_layer_security/firmware_project/bin/targets/my_blinky_nordic/app/@apache-mynewt-core/kernel/os/@apache-mynewt-core_kernel_os.a(os_sched.o)
                0x000000000000cedc                os_sched_wakeup_ticks
 .text.os_sched_next_task
                0x000000000000cf24        0xc /home/crepel/Documents/EPFL/bluetooth_stuff/Link_layer_security/firmware_project/bin/targets/my_blinky_nordic/app/@apache-mynewt-core/kernel/os/@apache-mynewt-core_kernel_os.a(os_sched.o)
                0x000000000000cf24                os_sched_next_task
 .text.os_sched
                0x000000000000cf30       0x22 /home/crepel/Documents/EPFL/bluetooth_stuff/Link_layer_security/firmware_project/bin/targets/my_blinky_nordic/app/@apache-mynewt-core/kernel/os/@apache-mynewt-core_kernel_os.a(os_sched.o)
                0x000000000000cf30                os_sched
 *fill*         0x000000000000cf52        0x2 
 .text.os_sched_resort
                0x000000000000cf54       0x2c /home/crepel/Documents/EPFL/bluetooth_stuff/Link_layer_security/firmware_project/bin/targets/my_blinky_nordic/app/@apache-mynewt-core/kernel/os/@apache-mynewt-core_kernel_os.a(os_sched.o)
                0x000000000000cf54                os_sched_resort
 .text._clear_stack
                0x000000000000cf80       0x18 /home/crepel/Documents/EPFL/bluetooth_stuff/Link_layer_security/firmware_project/bin/targets/my_blinky_nordic/app/@apache-mynewt-core/kernel/os/@apache-mynewt-core_kernel_os.a(os_task.o)
 .text.os_task_stacktop_get
                0x000000000000cf98        0xa /home/crepel/Documents/EPFL/bluetooth_stuff/Link_layer_security/firmware_project/bin/targets/my_blinky_nordic/app/@apache-mynewt-core/kernel/os/@apache-mynewt-core_kernel_os.a(os_task.o)
                0x000000000000cf98                os_task_stacktop_get
 *fill*         0x000000000000cfa2        0x2 
 .text.os_task_init
                0x000000000000cfa4       0xe4 /home/crepel/Documents/EPFL/bluetooth_stuff/Link_layer_security/firmware_project/bin/targets/my_blinky_nordic/app/@apache-mynewt-core/kernel/os/@apache-mynewt-core_kernel_os.a(os_task.o)
                0x000000000000cfa4                os_task_init
 .text.os_deltatime
                0x000000000000d088       0x4c /home/crepel/Documents/EPFL/bluetooth_stuff/Link_layer_security/firmware_project/bin/targets/my_blinky_nordic/app/@apache-mynewt-core/kernel/os/@apache-mynewt-core_kernel_os.a(os_time.o)
 .text.os_time_tick
                0x000000000000d0d4       0x64 /home/crepel/Documents/EPFL/bluetooth_stuff/Link_layer_security/firmware_project/bin/targets/my_blinky_nordic/app/@apache-mynewt-core/kernel/os/@apache-mynewt-core_kernel_os.a(os_time.o)
 .text.os_time_get
                0x000000000000d138        0xc /home/crepel/Documents/EPFL/bluetooth_stuff/Link_layer_security/firmware_project/bin/targets/my_blinky_nordic/app/@apache-mynewt-core/kernel/os/@apache-mynewt-core_kernel_os.a(os_time.o)
                0x000000000000d138                os_time_get
 .text.os_time_advance
                0x000000000000d144       0x48 /home/crepel/Documents/EPFL/bluetooth_stuff/Link_layer_security/firmware_project/bin/targets/my_blinky_nordic/app/@apache-mynewt-core/kernel/os/@apache-mynewt-core_kernel_os.a(os_time.o)
                0x000000000000d144                os_time_advance
 .text.os_time_delay
                0x000000000000d18c       0x26 /home/crepel/Documents/EPFL/bluetooth_stuff/Link_layer_security/firmware_project/bin/targets/my_blinky_nordic/app/@apache-mynewt-core/kernel/os/@apache-mynewt-core_kernel_os.a(os_time.o)
                0x000000000000d18c                os_time_delay
 .text.os_arch_task_return_handler
                0x000000000000d1b2        0x2 /home/crepel/Documents/EPFL/bluetooth_stuff/Link_layer_security/firmware_project/bin/targets/my_blinky_nordic/app/@apache-mynewt-core/kernel/os/@apache-mynewt-core_kernel_os.a(os_arch_arm.o)
 .text.timer_handler
                0x000000000000d1b4        0xa /home/crepel/Documents/EPFL/bluetooth_stuff/Link_layer_security/firmware_project/bin/targets/my_blinky_nordic/app/@apache-mynewt-core/kernel/os/@apache-mynewt-core_kernel_os.a(os_arch_arm.o)
                0x000000000000d1b4                timer_handler
 *fill*         0x000000000000d1be        0x2 
 .text.os_arch_ctx_sw
                0x000000000000d1c0       0x14 /home/crepel/Documents/EPFL/bluetooth_stuff/Link_layer_security/firmware_project/bin/targets/my_blinky_nordic/app/@apache-mynewt-core/kernel/os/@apache-mynewt-core_kernel_os.a(os_arch_arm.o)
                0x000000000000d1c0                os_arch_ctx_sw
 .text.os_arch_save_sr
                0x000000000000d1d4        0xc /home/crepel/Documents/EPFL/bluetooth_stuff/Link_layer_security/firmware_project/bin/targets/my_blinky_nordic/app/@apache-mynewt-core/kernel/os/@apache-mynewt-core_kernel_os.a(os_arch_arm.o)
                0x000000000000d1d4                os_arch_save_sr
 .text.os_arch_restore_sr
                0x000000000000d1e0        0x6 /home/crepel/Documents/EPFL/bluetooth_stuff/Link_layer_security/firmware_project/bin/targets/my_blinky_nordic/app/@apache-mynewt-core/kernel/os/@apache-mynewt-core_kernel_os.a(os_arch_arm.o)
                0x000000000000d1e0                os_arch_restore_sr
 .text.os_arch_in_critical
                0x000000000000d1e6        0xa /home/crepel/Documents/EPFL/bluetooth_stuff/Link_layer_security/firmware_project/bin/targets/my_blinky_nordic/app/@apache-mynewt-core/kernel/os/@apache-mynewt-core_kernel_os.a(os_arch_arm.o)
                0x000000000000d1e6                os_arch_in_critical
 .text.os_arch_task_stack_init
                0x000000000000d1f0       0x44 /home/crepel/Documents/EPFL/bluetooth_stuff/Link_layer_security/firmware_project/bin/targets/my_blinky_nordic/app/@apache-mynewt-core/kernel/os/@apache-mynewt-core_kernel_os.a(os_arch_arm.o)
                0x000000000000d1f0                os_arch_task_stack_init
 .text.os_arch_init
                0x000000000000d234       0x18 /home/crepel/Documents/EPFL/bluetooth_stuff/Link_layer_security/firmware_project/bin/targets/my_blinky_nordic/app/@apache-mynewt-core/kernel/os/@apache-mynewt-core_kernel_os.a(os_arch_arm.o)
                0x000000000000d234                os_arch_init
 .text.os_arch_os_init
                0x000000000000d24c       0x90 /home/crepel/Documents/EPFL/bluetooth_stuff/Link_layer_security/firmware_project/bin/targets/my_blinky_nordic/app/@apache-mynewt-core/kernel/os/@apache-mynewt-core_kernel_os.a(os_arch_arm.o)
                0x000000000000d24c                os_arch_os_init
 .text.os_arch_start
                0x000000000000d2dc       0x30 /home/crepel/Documents/EPFL/bluetooth_stuff/Link_layer_security/firmware_project/bin/targets/my_blinky_nordic/app/@apache-mynewt-core/kernel/os/@apache-mynewt-core_kernel_os.a(os_arch_arm.o)
                0x000000000000d2dc                os_arch_start
 .text.os_arch_os_start
                0x000000000000d30c       0x60 /home/crepel/Documents/EPFL/bluetooth_stuff/Link_layer_security/firmware_project/bin/targets/my_blinky_nordic/app/@apache-mynewt-core/kernel/os/@apache-mynewt-core_kernel_os.a(os_arch_arm.o)
                0x000000000000d30c                os_arch_os_start
 .text.__assert_func
                0x000000000000d36c       0x1c /home/crepel/Documents/EPFL/bluetooth_stuff/Link_layer_security/firmware_project/bin/targets/my_blinky_nordic/app/@apache-mynewt-core/kernel/os/@apache-mynewt-core_kernel_os.a(os_fault.o)
                0x000000000000d36c                __assert_func
 .text.os_default_irq
                0x000000000000d388       0x18 /home/crepel/Documents/EPFL/bluetooth_stuff/Link_layer_security/firmware_project/bin/targets/my_blinky_nordic/app/@apache-mynewt-core/kernel/os/@apache-mynewt-core_kernel_os.a(os_fault.o)
                0x000000000000d388                os_default_irq
 .text.os_mbuf_pool_init
                0x000000000000d3a0        0xa /home/crepel/Documents/EPFL/bluetooth_stuff/Link_layer_security/firmware_project/bin/targets/my_blinky_nordic/app/@apache-mynewt-core/kernel/os/@apache-mynewt-core_kernel_os.a(os_mbuf.o)
                0x000000000000d3a0                os_mbuf_pool_init
 .text.os_mutex_init
                0x000000000000d3aa       0x14 /home/crepel/Documents/EPFL/bluetooth_stuff/Link_layer_security/firmware_project/bin/targets/my_blinky_nordic/app/@apache-mynewt-core/kernel/os/@apache-mynewt-core_kernel_os.a(os_mutex.o)
                0x000000000000d3aa                os_mutex_init
 *fill*         0x000000000000d3be        0x2 
 .text.os_mutex_release
                0x000000000000d3c0       0xc0 /home/crepel/Documents/EPFL/bluetooth_stuff/Link_layer_security/firmware_project/bin/targets/my_blinky_nordic/app/@apache-mynewt-core/kernel/os/@apache-mynewt-core_kernel_os.a(os_mutex.o)
                0x000000000000d3c0                os_mutex_release
 .text.os_mutex_pend
                0x000000000000d480       0xe0 /home/crepel/Documents/EPFL/bluetooth_stuff/Link_layer_security/firmware_project/bin/targets/my_blinky_nordic/app/@apache-mynewt-core/kernel/os/@apache-mynewt-core_kernel_os.a(os_mutex.o)
                0x000000000000d480                os_mutex_pend
 .text          0x000000000000d560       0xc8 /home/crepel/Documents/EPFL/bluetooth_stuff/Link_layer_security/firmware_project/bin/targets/my_blinky_nordic/app/@apache-mynewt-core/kernel/os/@apache-mynewt-core_kernel_os.a(HAL_CM4.o)
                0x000000000000d560                os_set_env
                0x000000000000d574                os_arch_init_task_stack
                0x000000000000d57a                SVC_Handler
                0x000000000000d5c0                PendSV_Handler
                0x000000000000d5ea                SysTick_Handler
                0x000000000000d5f6                os_default_irq_asm
 .text.memcpy   0x000000000000d628       0x1a /home/crepel/Documents/EPFL/bluetooth_stuff/Link_layer_security/firmware_project/bin/targets/my_blinky_nordic/app/@apache-mynewt-core/libc/baselibc/@apache-mynewt-core_libc_baselibc.a(memcpy.o)
                0x000000000000d628                memcpy
 .text.memset   0x000000000000d642       0x38 /home/crepel/Documents/EPFL/bluetooth_stuff/Link_layer_security/firmware_project/bin/targets/my_blinky_nordic/app/@apache-mynewt-core/libc/baselibc/@apache-mynewt-core_libc_baselibc.a(memset.o)
                0x000000000000d642                memset
 .text.strlen   0x000000000000d67a       0x10 /home/crepel/Documents/EPFL/bluetooth_stuff/Link_layer_security/firmware_project/bin/targets/my_blinky_nordic/app/@apache-mynewt-core/libc/baselibc/@apache-mynewt-core_libc_baselibc.a(strlen.o)
                0x000000000000d67a                strlen
 *fill*         0x000000000000d68a        0x2 
 .text.flash_area_find_idx
                0x000000000000d68c       0x3c /home/crepel/Documents/EPFL/bluetooth_stuff/Link_layer_security/firmware_project/bin/targets/my_blinky_nordic/app/@apache-mynewt-core/sys/flash_map/@apache-mynewt-core_sys_flash_map.a(flash_map.o)
 .text.flash_map_area_overlaps
                0x000000000000d6c8       0x58 /home/crepel/Documents/EPFL/bluetooth_stuff/Link_layer_security/firmware_project/bin/targets/my_blinky_nordic/app/@apache-mynewt-core/sys/flash_map/@apache-mynewt-core_sys_flash_map.a(flash_map.o)
 .text.flash_map_add_new_dflt_areas
                0x000000000000d720       0x7c /home/crepel/Documents/EPFL/bluetooth_stuff/Link_layer_security/firmware_project/bin/targets/my_blinky_nordic/app/@apache-mynewt-core/sys/flash_map/@apache-mynewt-core_sys_flash_map.a(flash_map.o)
 .text.flash_map_read_mfg
                0x000000000000d79c       0x78 /home/crepel/Documents/EPFL/bluetooth_stuff/Link_layer_security/firmware_project/bin/targets/my_blinky_nordic/app/@apache-mynewt-core/sys/flash_map/@apache-mynewt-core_sys_flash_map.a(flash_map.o)
 .text.flash_area_open
                0x000000000000d814       0x34 /home/crepel/Documents/EPFL/bluetooth_stuff/Link_layer_security/firmware_project/bin/targets/my_blinky_nordic/app/@apache-mynewt-core/sys/flash_map/@apache-mynewt-core_sys_flash_map.a(flash_map.o)
                0x000000000000d814                flash_area_open
 .text.flash_area_read
                0x000000000000d848       0x26 /home/crepel/Documents/EPFL/bluetooth_stuff/Link_layer_security/firmware_project/bin/targets/my_blinky_nordic/app/@apache-mynewt-core/sys/flash_map/@apache-mynewt-core_sys_flash_map.a(flash_map.o)
                0x000000000000d848                flash_area_read
 *fill*         0x000000000000d86e        0x2 
 .text.flash_map_init
                0x000000000000d870       0x88 /home/crepel/Documents/EPFL/bluetooth_stuff/Link_layer_security/firmware_project/bin/targets/my_blinky_nordic/app/@apache-mynewt-core/sys/flash_map/@apache-mynewt-core_sys_flash_map.a(flash_map.o)
                0x000000000000d870                flash_map_init
 .text.modlog_init
                0x000000000000d8f8        0x2 /home/crepel/Documents/EPFL/bluetooth_stuff/Link_layer_security/firmware_project/bin/targets/my_blinky_nordic/app/@apache-mynewt-core/sys/log/modlog/@apache-mynewt-core_sys_log_modlog.a(modlog.o)
                0x000000000000d8f8                modlog_init
 *fill*         0x000000000000d8fa        0x2 
 .text.mfg_seek_next_aux
                0x000000000000d8fc       0x94 /home/crepel/Documents/EPFL/bluetooth_stuff/Link_layer_security/firmware_project/bin/targets/my_blinky_nordic/app/@apache-mynewt-core/sys/mfg/@apache-mynewt-core_sys_mfg.a(mfg.o)
 .text.mfg_read_mmr
                0x000000000000d990       0x70 /home/crepel/Documents/EPFL/bluetooth_stuff/Link_layer_security/firmware_project/bin/targets/my_blinky_nordic/app/@apache-mynewt-core/sys/mfg/@apache-mynewt-core_sys_mfg.a(mfg.o)
 .text.mfg_read_next_mmr
                0x000000000000da00       0x54 /home/crepel/Documents/EPFL/bluetooth_stuff/Link_layer_security/firmware_project/bin/targets/my_blinky_nordic/app/@apache-mynewt-core/sys/mfg/@apache-mynewt-core_sys_mfg.a(mfg.o)
 .text.mfg_open_flash_area
                0x000000000000da54       0x44 /home/crepel/Documents/EPFL/bluetooth_stuff/Link_layer_security/firmware_project/bin/targets/my_blinky_nordic/app/@apache-mynewt-core/sys/mfg/@apache-mynewt-core_sys_mfg.a(mfg.o)
 .text.mfg_read_tlv_body
                0x000000000000da98       0x44 /home/crepel/Documents/EPFL/bluetooth_stuff/Link_layer_security/firmware_project/bin/targets/my_blinky_nordic/app/@apache-mynewt-core/sys/mfg/@apache-mynewt-core_sys_mfg.a(mfg.o)
 .text.mfg_seek_next
                0x000000000000dadc       0x12 /home/crepel/Documents/EPFL/bluetooth_stuff/Link_layer_security/firmware_project/bin/targets/my_blinky_nordic/app/@apache-mynewt-core/sys/mfg/@apache-mynewt-core_sys_mfg.a(mfg.o)
                0x000000000000dadc                mfg_seek_next
 .text.mfg_seek_next_with_type
                0x000000000000daee       0x1a /home/crepel/Documents/EPFL/bluetooth_stuff/Link_layer_security/firmware_project/bin/targets/my_blinky_nordic/app/@apache-mynewt-core/sys/mfg/@apache-mynewt-core_sys_mfg.a(mfg.o)
                0x000000000000daee                mfg_seek_next_with_type
 .text.mfg_read_tlv_flash_area
                0x000000000000db08        0xa /home/crepel/Documents/EPFL/bluetooth_stuff/Link_layer_security/firmware_project/bin/targets/my_blinky_nordic/app/@apache-mynewt-core/sys/mfg/@apache-mynewt-core_sys_mfg.a(mfg.o)
                0x000000000000db08                mfg_read_tlv_flash_area
 .text.mfg_read_tlv_mmr_ref
                0x000000000000db12        0xa /home/crepel/Documents/EPFL/bluetooth_stuff/Link_layer_security/firmware_project/bin/targets/my_blinky_nordic/app/@apache-mynewt-core/sys/mfg/@apache-mynewt-core_sys_mfg.a(mfg.o)
                0x000000000000db12                mfg_read_tlv_mmr_ref
 .text.mfg_init
                0x000000000000db1c       0x40 /home/crepel/Documents/EPFL/bluetooth_stuff/Link_layer_security/firmware_project/bin/targets/my_blinky_nordic/app/@apache-mynewt-core/sys/mfg/@apache-mynewt-core_sys_mfg.a(mfg.o)
                0x000000000000db1c                mfg_init
 .text.mfg_open
                0x000000000000db5c       0x10 /home/crepel/Documents/EPFL/bluetooth_stuff/Link_layer_security/firmware_project/bin/targets/my_blinky_nordic/app/@apache-mynewt-core/sys/mfg/@apache-mynewt-core_sys_mfg.a(mfg.o)
                0x000000000000db5c                mfg_open
 .text.mfg_read_mmr_refs
                0x000000000000db6c       0x4e /home/crepel/Documents/EPFL/bluetooth_stuff/Link_layer_security/firmware_project/bin/targets/my_blinky_nordic/app/@apache-mynewt-core/sys/mfg/@apache-mynewt-core_sys_mfg.a(mfg.o)
 .text.sysinit_dflt_panic_cb
                0x000000000000dbba        0x6 /home/crepel/Documents/EPFL/bluetooth_stuff/Link_layer_security/firmware_project/bin/targets/my_blinky_nordic/app/@apache-mynewt-core/sys/sysinit/@apache-mynewt-core_sys_sysinit.a(sysinit.o)
 .text.sysinit_start
                0x000000000000dbc0        0xc /home/crepel/Documents/EPFL/bluetooth_stuff/Link_layer_security/firmware_project/bin/targets/my_blinky_nordic/app/@apache-mynewt-core/sys/sysinit/@apache-mynewt-core_sys_sysinit.a(sysinit.o)
                0x000000000000dbc0                sysinit_start
 .text.sysinit_end
                0x000000000000dbcc        0xc /home/crepel/Documents/EPFL/bluetooth_stuff/Link_layer_security/firmware_project/bin/targets/my_blinky_nordic/app/@apache-mynewt-core/sys/sysinit/@apache-mynewt-core_sys_sysinit.a(sysinit.o)
                0x000000000000dbcc                sysinit_end
 .text.mem_init_mbuf_pool
                0x000000000000dbd8       0x30 /home/crepel/Documents/EPFL/bluetooth_stuff/Link_layer_security/firmware_project/bin/targets/my_blinky_nordic/app/@apache-mynewt-core/util/mem/@apache-mynewt-core_util_mem.a(mem.o)
                0x000000000000dbd8                mem_init_mbuf_pool
 .text.hal_bsp_flash_dev
                0x000000000000dc08       0x10 /home/crepel/Documents/EPFL/bluetooth_stuff/Link_layer_security/firmware_project/bin/targets/my_blinky_nordic/app/@apache-mynewt-core/hw/bsp/nordic_pca10056/@apache-mynewt-core_hw_bsp_nordic_pca10056.a(hal_bsp.o)
                0x000000000000dc08                hal_bsp_flash_dev
 .text.hal_bsp_init
                0x000000000000dc18        0xc /home/crepel/Documents/EPFL/bluetooth_stuff/Link_layer_security/firmware_project/bin/targets/my_blinky_nordic/app/@apache-mynewt-core/hw/bsp/nordic_pca10056/@apache-mynewt-core_hw_bsp_nordic_pca10056.a(hal_bsp.o)
                0x000000000000dc18                hal_bsp_init
 .text.hal_flash_check_addr
                0x000000000000dc24       0x1e /home/crepel/Documents/EPFL/bluetooth_stuff/Link_layer_security/firmware_project/bin/targets/my_blinky_nordic/app/@apache-mynewt-core/hw/hal/@apache-mynewt-core_hw_hal.a(hal_flash.o)
 .text.hal_flash_init
                0x000000000000dc42       0x28 /home/crepel/Documents/EPFL/bluetooth_stuff/Link_layer_security/firmware_project/bin/targets/my_blinky_nordic/app/@apache-mynewt-core/hw/hal/@apache-mynewt-core_hw_hal.a(hal_flash.o)
                0x000000000000dc42                hal_flash_init
 .text.hal_flash_read
                0x000000000000dc6a       0x54 /home/crepel/Documents/EPFL/bluetooth_stuff/Link_layer_security/firmware_project/bin/targets/my_blinky_nordic/app/@apache-mynewt-core/hw/hal/@apache-mynewt-core_hw_hal.a(hal_flash.o)
                0x000000000000dc6a                hal_flash_read
 *fill*         0x000000000000dcbe        0x2 
 .text.nrf52k_flash_wait_ready
                0x000000000000dcc0       0x28 /home/crepel/Documents/EPFL/bluetooth_stuff/Link_layer_security/firmware_project/bin/targets/my_blinky_nordic/app/@apache-mynewt-core/hw/mcu/nordic/nrf52xxx/@apache-mynewt-core_hw_mcu_nordic_nrf52xxx.a(hal_flash.o)
 .text.nrf52k_flash_erase_sector
                0x000000000000dce8       0x54 /home/crepel/Documents/EPFL/bluetooth_stuff/Link_layer_security/firmware_project/bin/targets/my_blinky_nordic/app/@apache-mynewt-core/hw/mcu/nordic/nrf52xxx/@apache-mynewt-core_hw_mcu_nordic_nrf52xxx.a(hal_flash.o)
 .text.nrf52k_flash_init
                0x000000000000dd3c        0x4 /home/crepel/Documents/EPFL/bluetooth_stuff/Link_layer_security/firmware_project/bin/targets/my_blinky_nordic/app/@apache-mynewt-core/hw/mcu/nordic/nrf52xxx/@apache-mynewt-core_hw_mcu_nordic_nrf52xxx.a(hal_flash.o)
 .text.nrf52k_flash_sector_info
                0x000000000000dd40       0x28 /home/crepel/Documents/EPFL/bluetooth_stuff/Link_layer_security/firmware_project/bin/targets/my_blinky_nordic/app/@apache-mynewt-core/hw/mcu/nordic/nrf52xxx/@apache-mynewt-core_hw_mcu_nordic_nrf52xxx.a(hal_flash.o)
 .text.nrf52k_flash_write
                0x000000000000dd68       0xd0 /home/crepel/Documents/EPFL/bluetooth_stuff/Link_layer_security/firmware_project/bin/targets/my_blinky_nordic/app/@apache-mynewt-core/hw/mcu/nordic/nrf52xxx/@apache-mynewt-core_hw_mcu_nordic_nrf52xxx.a(hal_flash.o)
 .text.nrf52k_flash_read
                0x000000000000de38        0xe /home/crepel/Documents/EPFL/bluetooth_stuff/Link_layer_security/firmware_project/bin/targets/my_blinky_nordic/app/@apache-mynewt-core/hw/mcu/nordic/nrf52xxx/@apache-mynewt-core_hw_mcu_nordic_nrf52xxx.a(hal_flash.o)
 *fill*         0x000000000000de46        0x2 
 .text.nrf52_timer_handler
                0x000000000000de48       0xf4 /home/crepel/Documents/EPFL/bluetooth_stuff/Link_layer_security/firmware_project/bin/targets/my_blinky_nordic/app/@apache-mynewt-core/hw/mcu/nordic/nrf52xxx/@apache-mynewt-core_hw_mcu_nordic_nrf52xxx.a(hal_os_tick.o)
 .text.os_tick_idle
                0x000000000000df3c       0xb0 /home/crepel/Documents/EPFL/bluetooth_stuff/Link_layer_security/firmware_project/bin/targets/my_blinky_nordic/app/@apache-mynewt-core/hw/mcu/nordic/nrf52xxx/@apache-mynewt-core_hw_mcu_nordic_nrf52xxx.a(hal_os_tick.o)
                0x000000000000df3c                os_tick_idle
 .text.os_tick_init
                0x000000000000dfec       0xa8 /home/crepel/Documents/EPFL/bluetooth_stuff/Link_layer_security/firmware_project/bin/targets/my_blinky_nordic/app/@apache-mynewt-core/hw/mcu/nordic/nrf52xxx/@apache-mynewt-core_hw_mcu_nordic_nrf52xxx.a(hal_os_tick.o)
                0x000000000000dfec                os_tick_init
 .text.nrf52_hal_wdt_default_handler
                0x000000000000e094       0x16 /home/crepel/Documents/EPFL/bluetooth_stuff/Link_layer_security/firmware_project/bin/targets/my_blinky_nordic/app/@apache-mynewt-core/hw/mcu/nordic/nrf52xxx/@apache-mynewt-core_hw_mcu_nordic_nrf52xxx.a(hal_watchdog.o)
 *fill*         0x000000000000e0aa        0x2 
 .text.nrf52_wdt_irq_handler
                0x000000000000e0ac       0x20 /home/crepel/Documents/EPFL/bluetooth_stuff/Link_layer_security/firmware_project/bin/targets/my_blinky_nordic/app/@apache-mynewt-core/hw/mcu/nordic/nrf52xxx/@apache-mynewt-core_hw_mcu_nordic_nrf52xxx.a(hal_watchdog.o)
 .text.hal_watchdog_init
                0x000000000000e0cc       0x80 /home/crepel/Documents/EPFL/bluetooth_stuff/Link_layer_security/firmware_project/bin/targets/my_blinky_nordic/app/@apache-mynewt-core/hw/mcu/nordic/nrf52xxx/@apache-mynewt-core_hw_mcu_nordic_nrf52xxx.a(hal_watchdog.o)
                0x000000000000e0cc                hal_watchdog_init
 .text.hal_watchdog_enable
                0x000000000000e14c       0x10 /home/crepel/Documents/EPFL/bluetooth_stuff/Link_layer_security/firmware_project/bin/targets/my_blinky_nordic/app/@apache-mynewt-core/hw/mcu/nordic/nrf52xxx/@apache-mynewt-core_hw_mcu_nordic_nrf52xxx.a(hal_watchdog.o)
                0x000000000000e14c                hal_watchdog_enable
 .text.hal_watchdog_tickle
                0x000000000000e15c       0x14 /home/crepel/Documents/EPFL/bluetooth_stuff/Link_layer_security/firmware_project/bin/targets/my_blinky_nordic/app/@apache-mynewt-core/hw/mcu/nordic/nrf52xxx/@apache-mynewt-core_hw_mcu_nordic_nrf52xxx.a(hal_watchdog.o)
                0x000000000000e15c                hal_watchdog_tickle
 .text.nrf52_periph_create_timers
                0x000000000000e170       0x44 /home/crepel/Documents/EPFL/bluetooth_stuff/Link_layer_security/firmware_project/bin/targets/my_blinky_nordic/app/@apache-mynewt-core/hw/mcu/nordic/nrf52xxx/@apache-mynewt-core_hw_mcu_nordic_nrf52xxx.a(nrf52_periph.o)
 .text.nrf52_periph_create_uart
                0x000000000000e1b4       0x44 /home/crepel/Documents/EPFL/bluetooth_stuff/Link_layer_security/firmware_project/bin/targets/my_blinky_nordic/app/@apache-mynewt-core/hw/mcu/nordic/nrf52xxx/@apache-mynewt-core_hw_mcu_nordic_nrf52xxx.a(nrf52_periph.o)
 .text.nrf52_periph_create
                0x000000000000e1f8        0xc /home/crepel/Documents/EPFL/bluetooth_stuff/Link_layer_security/firmware_project/bin/targets/my_blinky_nordic/app/@apache-mynewt-core/hw/mcu/nordic/nrf52xxx/@apache-mynewt-core_hw_mcu_nordic_nrf52xxx.a(nrf52_periph.o)
                0x000000000000e1f8                nrf52_periph_create
 .text.nrf_read_timer_cntr
                0x000000000000e204        0xa /home/crepel/Documents/EPFL/bluetooth_stuff/Link_layer_security/firmware_project/bin/targets/my_blinky_nordic/app/@apache-mynewt-core/hw/mcu/nordic/nrf52xxx/@apache-mynewt-core_hw_mcu_nordic_nrf52xxx.a(hal_timer.o)
 *fill*         0x000000000000e20e        0x2 
 .text.nrf_timer_set_ocmp
                0x000000000000e210       0xf4 /home/crepel/Documents/EPFL/bluetooth_stuff/Link_layer_security/firmware_project/bin/targets/my_blinky_nordic/app/@apache-mynewt-core/hw/mcu/nordic/nrf52xxx/@apache-mynewt-core_hw_mcu_nordic_nrf52xxx.a(hal_timer.o)
 .text.nrf_timer_disable_ocmp
                0x000000000000e304        0xa /home/crepel/Documents/EPFL/bluetooth_stuff/Link_layer_security/firmware_project/bin/targets/my_blinky_nordic/app/@apache-mynewt-core/hw/mcu/nordic/nrf52xxx/@apache-mynewt-core_hw_mcu_nordic_nrf52xxx.a(hal_timer.o)
 .text.nrf_rtc_disable_ocmp
                0x000000000000e30e       0x10 /home/crepel/Documents/EPFL/bluetooth_stuff/Link_layer_security/firmware_project/bin/targets/my_blinky_nordic/app/@apache-mynewt-core/hw/mcu/nordic/nrf52xxx/@apache-mynewt-core_hw_mcu_nordic_nrf52xxx.a(hal_timer.o)
 *fill*         0x000000000000e31e        0x2 
 .text.hal_timer_read_bsptimer
                0x000000000000e320       0x54 /home/crepel/Documents/EPFL/bluetooth_stuff/Link_layer_security/firmware_project/bin/targets/my_blinky_nordic/app/@apache-mynewt-core/hw/mcu/nordic/nrf52xxx/@apache-mynewt-core_hw_mcu_nordic_nrf52xxx.a(hal_timer.o)
 .text.hal_timer_chk_queue
                0x000000000000e374       0x70 /home/crepel/Documents/EPFL/bluetooth_stuff/Link_layer_security/firmware_project/bin/targets/my_blinky_nordic/app/@apache-mynewt-core/hw/mcu/nordic/nrf52xxx/@apache-mynewt-core_hw_mcu_nordic_nrf52xxx.a(hal_timer.o)
 .text.hal_timer_irq_handler
                0x000000000000e3e4       0x2c /home/crepel/Documents/EPFL/bluetooth_stuff/Link_layer_security/firmware_project/bin/targets/my_blinky_nordic/app/@apache-mynewt-core/hw/mcu/nordic/nrf52xxx/@apache-mynewt-core_hw_mcu_nordic_nrf52xxx.a(hal_timer.o)
 .text.nrf52_timer0_irq_handler
                0x000000000000e410       0x10 /home/crepel/Documents/EPFL/bluetooth_stuff/Link_layer_security/firmware_project/bin/targets/my_blinky_nordic/app/@apache-mynewt-core/hw/mcu/nordic/nrf52xxx/@apache-mynewt-core_hw_mcu_nordic_nrf52xxx.a(hal_timer.o)
                0x000000000000e410                nrf52_timer0_irq_handler
 .text.hal_timer_init
                0x000000000000e420       0x60 /home/crepel/Documents/EPFL/bluetooth_stuff/Link_layer_security/firmware_project/bin/targets/my_blinky_nordic/app/@apache-mynewt-core/hw/mcu/nordic/nrf52xxx/@apache-mynewt-core_hw_mcu_nordic_nrf52xxx.a(hal_timer.o)
                0x000000000000e420                hal_timer_init
 .text.hal_timer_config
                0x000000000000e480       0xf8 /home/crepel/Documents/EPFL/bluetooth_stuff/Link_layer_security/firmware_project/bin/targets/my_blinky_nordic/app/@apache-mynewt-core/hw/mcu/nordic/nrf52xxx/@apache-mynewt-core_hw_mcu_nordic_nrf52xxx.a(hal_timer.o)
                0x000000000000e480                hal_timer_config
 .text.os_cputime_init
                0x000000000000e578        0xc /home/crepel/Documents/EPFL/bluetooth_stuff/Link_layer_security/firmware_project/bin/targets/my_blinky_nordic/app/@apache-mynewt-core/kernel/os/@apache-mynewt-core_kernel_os.a(os_cputime.o)
                0x000000000000e578                os_cputime_init
 .text.uart_hal_blocking_tx
                0x000000000000e584       0x22 /home/crepel/Documents/EPFL/bluetooth_stuff/Link_layer_security/firmware_project/bin/targets/my_blinky_nordic/app/@apache-mynewt-core/hw/drivers/uart/uart_hal/@apache-mynewt-core_hw_drivers_uart_uart_hal.a(uart_hal.o)
 .text.uart_hal_start_rx
                0x000000000000e5a6       0x22 /home/crepel/Documents/EPFL/bluetooth_stuff/Link_layer_security/firmware_project/bin/targets/my_blinky_nordic/app/@apache-mynewt-core/hw/drivers/uart/uart_hal/@apache-mynewt-core_hw_drivers_uart_uart_hal.a(uart_hal.o)
 .text.uart_hal_start_tx
                0x000000000000e5c8       0x22 /home/crepel/Documents/EPFL/bluetooth_stuff/Link_layer_security/firmware_project/bin/targets/my_blinky_nordic/app/@apache-mynewt-core/hw/drivers/uart/uart_hal/@apache-mynewt-core_hw_drivers_uart_uart_hal.a(uart_hal.o)
 .text.uart_hal_resume
                0x000000000000e5ea       0x30 /home/crepel/Documents/EPFL/bluetooth_stuff/Link_layer_security/firmware_project/bin/targets/my_blinky_nordic/app/@apache-mynewt-core/hw/drivers/uart/uart_hal/@apache-mynewt-core_hw_drivers_uart_uart_hal.a(uart_hal.o)
 .text.uart_hal_suspend
                0x000000000000e61a       0x2e /home/crepel/Documents/EPFL/bluetooth_stuff/Link_layer_security/firmware_project/bin/targets/my_blinky_nordic/app/@apache-mynewt-core/hw/drivers/uart/uart_hal/@apache-mynewt-core_hw_drivers_uart_uart_hal.a(uart_hal.o)
 .text.uart_hal_close
                0x000000000000e648       0x16 /home/crepel/Documents/EPFL/bluetooth_stuff/Link_layer_security/firmware_project/bin/targets/my_blinky_nordic/app/@apache-mynewt-core/hw/drivers/uart/uart_hal/@apache-mynewt-core_hw_drivers_uart_uart_hal.a(uart_hal.o)
 .text.uart_hal_open
                0x000000000000e65e       0x8a /home/crepel/Documents/EPFL/bluetooth_stuff/Link_layer_security/firmware_project/bin/targets/my_blinky_nordic/app/@apache-mynewt-core/hw/drivers/uart/uart_hal/@apache-mynewt-core_hw_drivers_uart_uart_hal.a(uart_hal.o)
 .text.uart_hal_init
                0x000000000000e6e8       0x68 /home/crepel/Documents/EPFL/bluetooth_stuff/Link_layer_security/firmware_project/bin/targets/my_blinky_nordic/app/@apache-mynewt-core/hw/drivers/uart/uart_hal/@apache-mynewt-core_hw_drivers_uart_uart_hal.a(uart_hal.o)
                0x000000000000e6e8                uart_hal_init
 .text.hal_uart_tx_fill_buf
                0x000000000000e750       0x20 /home/crepel/Documents/EPFL/bluetooth_stuff/Link_layer_security/firmware_project/bin/targets/my_blinky_nordic/app/@apache-mynewt-core/hw/mcu/nordic/nrf52xxx/@apache-mynewt-core_hw_mcu_nordic_nrf52xxx.a(hal_uart.o)
 .text.uart_irq_handler
                0x000000000000e770       0x72 /home/crepel/Documents/EPFL/bluetooth_stuff/Link_layer_security/firmware_project/bin/targets/my_blinky_nordic/app/@apache-mynewt-core/hw/mcu/nordic/nrf52xxx/@apache-mynewt-core_hw_mcu_nordic_nrf52xxx.a(hal_uart.o)
 *fill*         0x000000000000e7e2        0x2 
 .text.uart0_irq_handler
                0x000000000000e7e4       0x14 /home/crepel/Documents/EPFL/bluetooth_stuff/Link_layer_security/firmware_project/bin/targets/my_blinky_nordic/app/@apache-mynewt-core/hw/mcu/nordic/nrf52xxx/@apache-mynewt-core_hw_mcu_nordic_nrf52xxx.a(hal_uart.o)
 .text.uart1_irq_handler
                0x000000000000e7f8       0x14 /home/crepel/Documents/EPFL/bluetooth_stuff/Link_layer_security/firmware_project/bin/targets/my_blinky_nordic/app/@apache-mynewt-core/hw/mcu/nordic/nrf52xxx/@apache-mynewt-core_hw_mcu_nordic_nrf52xxx.a(hal_uart.o)
 .text.hal_uart_baudrate
                0x000000000000e80c       0xf0 /home/crepel/Documents/EPFL/bluetooth_stuff/Link_layer_security/firmware_project/bin/targets/my_blinky_nordic/app/@apache-mynewt-core/hw/mcu/nordic/nrf52xxx/@apache-mynewt-core_hw_mcu_nordic_nrf52xxx.a(hal_uart.o)
 .text.hal_uart_init_cbs
                0x000000000000e8fc       0x3c /home/crepel/Documents/EPFL/bluetooth_stuff/Link_layer_security/firmware_project/bin/targets/my_blinky_nordic/app/@apache-mynewt-core/hw/mcu/nordic/nrf52xxx/@apache-mynewt-core_hw_mcu_nordic_nrf52xxx.a(hal_uart.o)
                0x000000000000e8fc                hal_uart_init_cbs
 .text.hal_uart_start_tx
                0x000000000000e938       0x60 /home/crepel/Documents/EPFL/bluetooth_stuff/Link_layer_security/firmware_project/bin/targets/my_blinky_nordic/app/@apache-mynewt-core/hw/mcu/nordic/nrf52xxx/@apache-mynewt-core_hw_mcu_nordic_nrf52xxx.a(hal_uart.o)
                0x000000000000e938                hal_uart_start_tx
 .text.hal_uart_start_rx
                0x000000000000e998       0x4c /home/crepel/Documents/EPFL/bluetooth_stuff/Link_layer_security/firmware_project/bin/targets/my_blinky_nordic/app/@apache-mynewt-core/hw/mcu/nordic/nrf52xxx/@apache-mynewt-core_hw_mcu_nordic_nrf52xxx.a(hal_uart.o)
                0x000000000000e998                hal_uart_start_rx
 .text.hal_uart_blocking_tx
                0x000000000000e9e4       0x64 /home/crepel/Documents/EPFL/bluetooth_stuff/Link_layer_security/firmware_project/bin/targets/my_blinky_nordic/app/@apache-mynewt-core/hw/mcu/nordic/nrf52xxx/@apache-mynewt-core_hw_mcu_nordic_nrf52xxx.a(hal_uart.o)
                0x000000000000e9e4                hal_uart_blocking_tx
 .text.hal_uart_init
                0x000000000000ea48       0x5c /home/crepel/Documents/EPFL/bluetooth_stuff/Link_layer_security/firmware_project/bin/targets/my_blinky_nordic/app/@apache-mynewt-core/hw/mcu/nordic/nrf52xxx/@apache-mynewt-core_hw_mcu_nordic_nrf52xxx.a(hal_uart.o)
                0x000000000000ea48                hal_uart_init
 .text.hal_uart_config
                0x000000000000eaa4      0x100 /home/crepel/Documents/EPFL/bluetooth_stuff/Link_layer_security/firmware_project/bin/targets/my_blinky_nordic/app/@apache-mynewt-core/hw/mcu/nordic/nrf52xxx/@apache-mynewt-core_hw_mcu_nordic_nrf52xxx.a(hal_uart.o)
                0x000000000000eaa4                hal_uart_config
 .text.hal_uart_close
                0x000000000000eba4       0x48 /home/crepel/Documents/EPFL/bluetooth_stuff/Link_layer_security/firmware_project/bin/targets/my_blinky_nordic/app/@apache-mynewt-core/hw/mcu/nordic/nrf52xxx/@apache-mynewt-core_hw_mcu_nordic_nrf52xxx.a(hal_uart.o)
                0x000000000000eba4                hal_uart_close
 *(.init)
 *(.fini)
 *crtbegin.o(.ctors)
 *crtbegin?.o(.ctors)
 *(EXCLUDE_FILE(*crtend.o *crtend?.o) .ctors)
 *(SORT_BY_NAME(.ctors.*))
 *(.ctors)
 *crtbegin.o(.dtors)
 *crtbegin?.o(.dtors)
 *(EXCLUDE_FILE(*crtend.o *crtend?.o) .dtors)
 *(SORT_BY_NAME(.dtors.*))
 *(.dtors)
 *(.rodata*)
 .rodata.os_init.str1.4
                0x000000000000ebec        0x5 /home/crepel/Documents/EPFL/bluetooth_stuff/Link_layer_security/firmware_project/bin/targets/my_blinky_nordic/app/@apache-mynewt-core/kernel/os/@apache-mynewt-core_kernel_os.a(os.o)
 *fill*         0x000000000000ebf1        0x3 
 .rodata.os_init_idle_task.str1.4
                0x000000000000ebf4        0x5 /home/crepel/Documents/EPFL/bluetooth_stuff/Link_layer_security/firmware_project/bin/targets/my_blinky_nordic/app/@apache-mynewt-core/kernel/os/@apache-mynewt-core_kernel_os.a(os.o)
 *fill*         0x000000000000ebf9        0x3 
 .rodata.os_msys_init.str1.4
                0x000000000000ebfc        0x7 /home/crepel/Documents/EPFL/bluetooth_stuff/Link_layer_security/firmware_project/bin/targets/my_blinky_nordic/app/@apache-mynewt-core/kernel/os/@apache-mynewt-core_kernel_os.a(os_msys.o)
 *fill*         0x000000000000ec03        0x1 
 .rodata.sysflash_map_dflt
                0x000000000000ec04       0x48 /home/crepel/Documents/EPFL/bluetooth_stuff/Link_layer_security/firmware_project/bin/targets/my_blinky_nordic/generated/bin/my_blinky_nordic-sysinit-app.a(my_blinky_nordic-sysflash.o)
                0x000000000000ec04                sysflash_map_dflt
 .rodata.nrf52k_flash_dev
                0x000000000000ec4c       0x18 /home/crepel/Documents/EPFL/bluetooth_stuff/Link_layer_security/firmware_project/bin/targets/my_blinky_nordic/app/@apache-mynewt-core/hw/mcu/nordic/nrf52xxx/@apache-mynewt-core_hw_mcu_nordic_nrf52xxx.a(hal_flash.o)
                0x000000000000ec4c                nrf52k_flash_dev
 .rodata.nrf52k_flash_funcs
                0x000000000000ec64       0x1c /home/crepel/Documents/EPFL/bluetooth_stuff/Link_layer_security/firmware_project/bin/targets/my_blinky_nordic/app/@apache-mynewt-core/hw/mcu/nordic/nrf52xxx/@apache-mynewt-core_hw_mcu_nordic_nrf52xxx.a(hal_flash.o)
 .rodata.nrf52_periph_create_uart.str1.4
                0x000000000000ec80        0x8 /home/crepel/Documents/EPFL/bluetooth_stuff/Link_layer_security/firmware_project/bin/targets/my_blinky_nordic/app/@apache-mynewt-core/hw/mcu/nordic/nrf52xxx/@apache-mynewt-core_hw_mcu_nordic_nrf52xxx.a(nrf52_periph.o)
                                          0x6 (size before relaxing)
 .rodata.os_bsp_uart0_cfg
                0x000000000000ec88        0x4 /home/crepel/Documents/EPFL/bluetooth_stuff/Link_layer_security/firmware_project/bin/targets/my_blinky_nordic/app/@apache-mynewt-core/hw/mcu/nordic/nrf52xxx/@apache-mynewt-core_hw_mcu_nordic_nrf52xxx.a(nrf52_periph.o)
 .rodata.nrf52_hal_timers
                0x000000000000ec8c       0x18 /home/crepel/Documents/EPFL/bluetooth_stuff/Link_layer_security/firmware_project/bin/targets/my_blinky_nordic/app/@apache-mynewt-core/hw/mcu/nordic/nrf52xxx/@apache-mynewt-core_hw_mcu_nordic_nrf52xxx.a(hal_timer.o)
 *(.eh_frame*)
                0x000000000000eca4                . = ALIGN (0x4)

.glue_7         0x000000000000eca4        0x0
 .glue_7        0x000000000000eca4        0x0 linker stubs

.glue_7t        0x000000000000eca4        0x0
 .glue_7t       0x000000000000eca4        0x0 linker stubs

.vfp11_veneer   0x000000000000eca4        0x0
 .vfp11_veneer  0x000000000000eca4        0x0 linker stubs

.v4_bx          0x000000000000eca4        0x0
 .v4_bx         0x000000000000eca4        0x0 linker stubs

.iplt           0x000000000000eca4        0x0
 .iplt          0x000000000000eca4        0x0 /home/crepel/Documents/EPFL/bluetooth_stuff/Link_layer_security/firmware_project/bin/targets/my_blinky_nordic/app/@apache-mynewt-core/hw/bsp/nordic_pca10056/@apache-mynewt-core_hw_bsp_nordic_pca10056.a(gcc_startup_nrf52840.o)

.ARM.extab      0x000000000000eca4        0x0
 *(.ARM.extab* .gnu.linkonce.armextab.*)
                0x000000000000eca4                . = ALIGN (0x4)
                0x000000000000eca4                __exidx_start = .

.ARM.exidx      0x000000000000eca4       0x18
 *(.ARM.exidx* .gnu.linkonce.armexidx.*)
 .ARM.exidx     0x000000000000eca4        0x8 /home/crepel/Documents/EPFL/bluetooth_stuff/Link_layer_security/firmware_project/bin/targets/my_blinky_nordic/app/@apache-mynewt-core/hw/bsp/nordic_pca10056/@apache-mynewt-core_hw_bsp_nordic_pca10056.a(gcc_startup_nrf52840.o)
 .ARM.exidx     0x000000000000ecac       0x10 /home/crepel/Documents/EPFL/bluetooth_stuff/Link_layer_security/firmware_project/bin/targets/my_blinky_nordic/app/@apache-mynewt-core/kernel/os/@apache-mynewt-core_kernel_os.a(HAL_CM4.o)
                                         0x30 (size before relaxing)
                0x000000000000ecbc                . = ALIGN (0x4)
                0x000000000000ecbc                __exidx_end = .
                0x000000000000ecbc                __etext = .

.rel.dyn        0x000000000000ecbc        0x0
 .rel.iplt      0x000000000000ecbc        0x0 /home/crepel/Documents/EPFL/bluetooth_stuff/Link_layer_security/firmware_project/bin/targets/my_blinky_nordic/app/@apache-mynewt-core/hw/bsp/nordic_pca10056/@apache-mynewt-core_hw_bsp_nordic_pca10056.a(gcc_startup_nrf52840.o)

.vector_relocation
                0x0000000020000000      0x100
                0x0000000020000000                . = ALIGN (0x4)
                0x0000000020000000                __vector_tbl_reloc__ = .
                0x0000000020000100                . = (. + (__isr_vector_end - __isr_vector_start))
 *fill*         0x0000000020000000      0x100 
                0x0000000020000100                . = ALIGN (0x4)

.rtt            0x0000000020000100        0x0
                0x0000000020000100                . = ALIGN (0x4)
 *(.rtt)
                0x0000000020000100                . = ALIGN (0x4)

.data           0x0000000020000100       0x2c load address 0x000000000000ecbc
                0x0000000020000100                __data_start__ = .
 *(vtable)
 *(.data*)
 .data          0x0000000020000100        0xc /home/crepel/Documents/EPFL/bluetooth_stuff/Link_layer_security/firmware_project/bin/targets/my_blinky_nordic/app/@apache-mynewt-core/hw/bsp/nordic_pca10056/@apache-mynewt-core_hw_bsp_nordic_pca10056.a(sbrk.o)
 .data.SystemCoreClock
                0x000000002000010c        0x4 /home/crepel/Documents/EPFL/bluetooth_stuff/Link_layer_security/firmware_project/bin/targets/my_blinky_nordic/app/@apache-mynewt-core/hw/mcu/nordic/nrf52xxx/@apache-mynewt-core_hw_mcu_nordic_nrf52xxx.a(system_nrf52.o)
                0x000000002000010c                SystemCoreClock
 .data.g_msys_pool_list
                0x0000000020000110        0x8 /home/crepel/Documents/EPFL/bluetooth_stuff/Link_layer_security/firmware_project/bin/targets/my_blinky_nordic/app/@apache-mynewt-core/kernel/os/@apache-mynewt-core_kernel_os.a(os_msys.o)
 .data.g_os_run_list
                0x0000000020000118        0x8 /home/crepel/Documents/EPFL/bluetooth_stuff/Link_layer_security/firmware_project/bin/targets/my_blinky_nordic/app/@apache-mynewt-core/kernel/os/@apache-mynewt-core_kernel_os.a(os_sched.o)
                0x0000000020000118                g_os_run_list
 .data.g_os_sleep_list
                0x0000000020000120        0x8 /home/crepel/Documents/EPFL/bluetooth_stuff/Link_layer_security/firmware_project/bin/targets/my_blinky_nordic/app/@apache-mynewt-core/kernel/os/@apache-mynewt-core_kernel_os.a(os_sched.o)
                0x0000000020000120                g_os_sleep_list
 .data          0x0000000020000128        0x0 /home/crepel/Documents/EPFL/bluetooth_stuff/Link_layer_security/firmware_project/bin/targets/my_blinky_nordic/app/@apache-mynewt-core/kernel/os/@apache-mynewt-core_kernel_os.a(HAL_CM4.o)
                0x0000000020000128                __aeabi_unwind_cpp_pr0
 .data.sysinit_panic_cb
                0x0000000020000128        0x4 /home/crepel/Documents/EPFL/bluetooth_stuff/Link_layer_security/firmware_project/bin/targets/my_blinky_nordic/app/@apache-mynewt-core/sys/sysinit/@apache-mynewt-core_sys_sysinit.a(sysinit.o)
                0x0000000020000128                sysinit_panic_cb
                0x000000002000012c                . = ALIGN (0x4)
                [!provide]                        PROVIDE (__preinit_array_start = .)
 *(.preinit_array)
                [!provide]                        PROVIDE (__preinit_array_end = .)
                0x000000002000012c                . = ALIGN (0x4)
                [!provide]                        PROVIDE (__init_array_start = .)
 *(SORT_BY_NAME(.init_array.*))
 *(.init_array)
                [!provide]                        PROVIDE (__init_array_end = .)
                0x000000002000012c                . = ALIGN (0x4)
                [!provide]                        PROVIDE (__fini_array_start = .)
 *(SORT_BY_NAME(.fini_array.*))
 *(.fini_array)
                [!provide]                        PROVIDE (__fini_array_end = .)
 *(.jcr)
                0x000000002000012c                . = ALIGN (0x4)
                0x000000002000012c                __data_end__ = .

.igot.plt       0x000000002000012c        0x0 load address 0x000000000000ece8
 .igot.plt      0x000000002000012c        0x0 /home/crepel/Documents/EPFL/bluetooth_stuff/Link_layer_security/firmware_project/bin/targets/my_blinky_nordic/app/@apache-mynewt-core/hw/bsp/nordic_pca10056/@apache-mynewt-core_hw_bsp_nordic_pca10056.a(gcc_startup_nrf52840.o)

.bssnz          0x000000002000012c        0x0 load address 0x000000000000ece8
                0x000000002000012c                . = ALIGN (0x4)
                0x000000002000012c                __bssnz_start__ = .
 *(.bss.core.nz*)
                0x000000002000012c                . = ALIGN (0x4)
                0x000000002000012c                __bssnz_end__ = .

.bss            0x0000000020000130     0x2154 load address 0x000000000000ece8
                0x0000000020000130                . = ALIGN (0x4)
                0x0000000020000130                __bss_start__ = .
 *(.bss*)
 .bss.g_task1_loops
                0x0000000020000130        0x4 /home/crepel/Documents/EPFL/bluetooth_stuff/Link_layer_security/firmware_project/bin/targets/my_blinky_nordic/app/apps/blinky/apps_blinky.a(main.o)
 *fill*         0x0000000020000134        0x4 
 .bss.g_idle_task_stack
                0x0000000020000138      0x100 /home/crepel/Documents/EPFL/bluetooth_stuff/Link_layer_security/firmware_project/bin/targets/my_blinky_nordic/app/@apache-mynewt-core/kernel/os/@apache-mynewt-core_kernel_os.a(os.o)
 .bss.g_os_main_stack
                0x0000000020000238     0x1000 /home/crepel/Documents/EPFL/bluetooth_stuff/Link_layer_security/firmware_project/bin/targets/my_blinky_nordic/app/@apache-mynewt-core/kernel/os/@apache-mynewt-core_kernel_os.a(os.o)
 .bss.g_os_dev_list
                0x0000000020001238        0x8 /home/crepel/Documents/EPFL/bluetooth_stuff/Link_layer_security/firmware_project/bin/targets/my_blinky_nordic/app/@apache-mynewt-core/kernel/os/@apache-mynewt-core_kernel_os.a(os_dev.o)
 .bss.os_eventq_main
                0x0000000020001240       0x10 /home/crepel/Documents/EPFL/bluetooth_stuff/Link_layer_security/firmware_project/bin/targets/my_blinky_nordic/app/@apache-mynewt-core/kernel/os/@apache-mynewt-core_kernel_os.a(os_eventq.o)
 .bss.os_msys_1_data
                0x0000000020001250      0xdb0 /home/crepel/Documents/EPFL/bluetooth_stuff/Link_layer_security/firmware_project/bin/targets/my_blinky_nordic/app/@apache-mynewt-core/kernel/os/@apache-mynewt-core_kernel_os.a(os_msys.o)
 .bss.os_msys_1_mbuf_pool
                0x0000000020002000        0xc /home/crepel/Documents/EPFL/bluetooth_stuff/Link_layer_security/firmware_project/bin/targets/my_blinky_nordic/app/@apache-mynewt-core/kernel/os/@apache-mynewt-core_kernel_os.a(os_msys.o)
 .bss.os_msys_1_mempool
                0x000000002000200c       0x1c /home/crepel/Documents/EPFL/bluetooth_stuff/Link_layer_security/firmware_project/bin/targets/my_blinky_nordic/app/@apache-mynewt-core/kernel/os/@apache-mynewt-core_kernel_os.a(os_msys.o)
 .bss.g_os_sanity_check_list
                0x0000000020002028        0x4 /home/crepel/Documents/EPFL/bluetooth_stuff/Link_layer_security/firmware_project/bin/targets/my_blinky_nordic/app/@apache-mynewt-core/kernel/os/@apache-mynewt-core_kernel_os.a(os_sanity.o)
                0x0000000020002028                g_os_sanity_check_list
 *fill*         0x000000002000202c        0x4 
 .bss.basetod   0x0000000020002030       0x30 /home/crepel/Documents/EPFL/bluetooth_stuff/Link_layer_security/firmware_project/bin/targets/my_blinky_nordic/app/@apache-mynewt-core/kernel/os/@apache-mynewt-core_kernel_os.a(os_time.o)
 .bss.os_flags  0x0000000020002060        0x4 /home/crepel/Documents/EPFL/bluetooth_stuff/Link_layer_security/firmware_project/bin/targets/my_blinky_nordic/app/@apache-mynewt-core/kernel/os/@apache-mynewt-core_kernel_os.a(os_arch_arm.o)
                0x0000000020002060                os_flags
 .bss.mfg_areas.8234
                0x0000000020002064       0x78 /home/crepel/Documents/EPFL/bluetooth_stuff/Link_layer_security/firmware_project/bin/targets/my_blinky_nordic/app/@apache-mynewt-core/sys/flash_map/@apache-mynewt-core_sys_flash_map.a(flash_map.o)
 .bss.mfg_initialized
                0x00000000200020dc        0x1 /home/crepel/Documents/EPFL/bluetooth_stuff/Link_layer_security/firmware_project/bin/targets/my_blinky_nordic/app/@apache-mynewt-core/sys/mfg/@apache-mynewt-core_sys_mfg.a(mfg.o)
 *fill*         0x00000000200020dd        0x3 
 .bss.mfg_mmrs  0x00000000200020e0       0x18 /home/crepel/Documents/EPFL/bluetooth_stuff/Link_layer_security/firmware_project/bin/targets/my_blinky_nordic/app/@apache-mynewt-core/sys/mfg/@apache-mynewt-core_sys_mfg.a(mfg.o)
 .bss.mfg_num_mmrs
                0x00000000200020f8        0x4 /home/crepel/Documents/EPFL/bluetooth_stuff/Link_layer_security/firmware_project/bin/targets/my_blinky_nordic/app/@apache-mynewt-core/sys/mfg/@apache-mynewt-core_sys_mfg.a(mfg.o)
 .bss.os_bsp_uart0
                0x00000000200020fc       0x3c /home/crepel/Documents/EPFL/bluetooth_stuff/Link_layer_security/firmware_project/bin/targets/my_blinky_nordic/app/@apache-mynewt-core/hw/mcu/nordic/nrf52xxx/@apache-mynewt-core_hw_mcu_nordic_nrf52xxx.a(nrf52_periph.o)
 .bss.uart0     0x0000000020002138       0x1c /home/crepel/Documents/EPFL/bluetooth_stuff/Link_layer_security/firmware_project/bin/targets/my_blinky_nordic/app/@apache-mynewt-core/hw/mcu/nordic/nrf52xxx/@apache-mynewt-core_hw_mcu_nordic_nrf52xxx.a(hal_uart.o)
 .bss.uart1     0x0000000020002154       0x1c /home/crepel/Documents/EPFL/bluetooth_stuff/Link_layer_security/firmware_project/bin/targets/my_blinky_nordic/app/@apache-mynewt-core/hw/mcu/nordic/nrf52xxx/@apache-mynewt-core_hw_mcu_nordic_nrf52xxx.a(hal_uart.o)
 *(COMMON)
 COMMON         0x0000000020002170        0x4 /home/crepel/Documents/EPFL/bluetooth_stuff/Link_layer_security/firmware_project/bin/targets/my_blinky_nordic/app/apps/blinky/apps_blinky.a(main.o)
                0x0000000020002170                g_led_pin
 COMMON         0x0000000020002174       0xa8 /home/crepel/Documents/EPFL/bluetooth_stuff/Link_layer_security/firmware_project/bin/targets/my_blinky_nordic/app/@apache-mynewt-core/kernel/os/@apache-mynewt-core_kernel_os.a(os.o)
                0x0000000020002174                g_idle_task
                0x00000000200021c4                g_os_idle_ctr
                0x00000000200021c8                g_os_started
                0x00000000200021cc                g_os_main_task
 COMMON         0x000000002000221c        0x8 /home/crepel/Documents/EPFL/bluetooth_stuff/Link_layer_security/firmware_project/bin/targets/my_blinky_nordic/app/@apache-mynewt-core/kernel/os/@apache-mynewt-core_kernel_os.a(os_callout.o)
                0x000000002000221c                g_callout_list
 COMMON         0x0000000020002224        0x8 /home/crepel/Documents/EPFL/bluetooth_stuff/Link_layer_security/firmware_project/bin/targets/my_blinky_nordic/app/@apache-mynewt-core/kernel/os/@apache-mynewt-core_kernel_os.a(os_mempool.o)
                0x0000000020002224                g_os_mempool_list
 COMMON         0x000000002000222c        0xc /home/crepel/Documents/EPFL/bluetooth_stuff/Link_layer_security/firmware_project/bin/targets/my_blinky_nordic/app/@apache-mynewt-core/kernel/os/@apache-mynewt-core_kernel_os.a(os_sanity.o)
                0x000000002000222c                g_os_sanity_check_mu
 COMMON         0x0000000020002238        0x8 /home/crepel/Documents/EPFL/bluetooth_stuff/Link_layer_security/firmware_project/bin/targets/my_blinky_nordic/app/@apache-mynewt-core/kernel/os/@apache-mynewt-core_kernel_os.a(os_sched.o)
                0x0000000020002238                g_current_task
                0x000000002000223c                g_os_last_ctx_sw_time
 COMMON         0x0000000020002240        0x9 /home/crepel/Documents/EPFL/bluetooth_stuff/Link_layer_security/firmware_project/bin/targets/my_blinky_nordic/app/@apache-mynewt-core/kernel/os/@apache-mynewt-core_kernel_os.a(os_task.o)
                0x0000000020002240                g_os_task_list
                0x0000000020002248                g_task_id
 *fill*         0x0000000020002249        0x3 
 COMMON         0x000000002000224c        0x4 /home/crepel/Documents/EPFL/bluetooth_stuff/Link_layer_security/firmware_project/bin/targets/my_blinky_nordic/app/@apache-mynewt-core/kernel/os/@apache-mynewt-core_kernel_os.a(os_time.o)
                0x000000002000224c                g_os_time
 COMMON         0x0000000020002250        0x8 /home/crepel/Documents/EPFL/bluetooth_stuff/Link_layer_security/firmware_project/bin/targets/my_blinky_nordic/app/@apache-mynewt-core/sys/flash_map/@apache-mynewt-core_sys_flash_map.a(flash_map.o)
                0x0000000020002250                flash_map
                0x0000000020002254                flash_map_entries
 COMMON         0x0000000020002258        0x1 /home/crepel/Documents/EPFL/bluetooth_stuff/Link_layer_security/firmware_project/bin/targets/my_blinky_nordic/app/@apache-mynewt-core/sys/sysinit/@apache-mynewt-core_sys_sysinit.a(sysinit.o)
                0x0000000020002258                sysinit_active
 *fill*         0x0000000020002259        0x3 
 COMMON         0x000000002000225c        0xc /home/crepel/Documents/EPFL/bluetooth_stuff/Link_layer_security/firmware_project/bin/targets/my_blinky_nordic/app/@apache-mynewt-core/hw/mcu/nordic/nrf52xxx/@apache-mynewt-core_hw_mcu_nordic_nrf52xxx.a(hal_os_tick.o)
                0x000000002000225c                g_hal_os_tick
 COMMON         0x0000000020002268       0x1c /home/crepel/Documents/EPFL/bluetooth_stuff/Link_layer_security/firmware_project/bin/targets/my_blinky_nordic/app/@apache-mynewt-core/hw/mcu/nordic/nrf52xxx/@apache-mynewt-core_hw_mcu_nordic_nrf52xxx.a(hal_timer.o)
                0x0000000020002268                nrf52_hal_timer0
                0x0000000020002284                . = ALIGN (0x4)
                0x0000000020002284                __bss_end__ = .
                0x0000000020002288                . = ALIGN (0x8)
                0x0000000020002288                __HeapBase = .

.stack_dummy    0x0000000020002288      0x1b0 load address 0x000000000000ece8
 *(.stack*)
 .stack         0x0000000020002288      0x1b0 /home/crepel/Documents/EPFL/bluetooth_stuff/Link_layer_security/firmware_project/bin/targets/my_blinky_nordic/app/@apache-mynewt-core/hw/bsp/nordic_pca10056/@apache-mynewt-core_hw_bsp_nordic_pca10056.a(gcc_startup_nrf52840.o)
                0x0000000020000000                _ram_start = ORIGIN (RAM)
                0x0000000020040000                __StackTop = (ORIGIN (RAM) + LENGTH (RAM))
                0x000000002003fe50                __StackLimit = (__StackTop - SIZEOF (.stack_dummy))
                [!provide]                        PROVIDE (__stack = __StackTop)
                0x000000002003fe50                __HeapLimit = __StackLimit
                0x0000000000000001                ASSERT ((__HeapBase <= __HeapLimit), region RAM overflowed with stack)
OUTPUT(/home/crepel/Documents/EPFL/bluetooth_stuff/Link_layer_security/firmware_project/bin/targets/my_blinky_nordic/app/apps/blinky/blinky.elf elf32-littlearm)

.heap           0x0000000000000000        0x0
 .heap          0x0000000000000000        0x0 /home/crepel/Documents/EPFL/bluetooth_stuff/Link_layer_security/firmware_project/bin/targets/my_blinky_nordic/app/@apache-mynewt-core/hw/bsp/nordic_pca10056/@apache-mynewt-core_hw_bsp_nordic_pca10056.a(gcc_startup_nrf52840.o)

.ARM.attributes
                0x0000000000000000       0x2a
 .ARM.attributes
                0x0000000000000000       0x1c /home/crepel/Documents/EPFL/bluetooth_stuff/Link_layer_security/firmware_project/bin/targets/my_blinky_nordic/app/@apache-mynewt-core/hw/bsp/nordic_pca10056/@apache-mynewt-core_hw_bsp_nordic_pca10056.a(gcc_startup_nrf52840.o)
 .ARM.attributes
                0x000000000000001c       0x33 /home/crepel/Documents/EPFL/bluetooth_stuff/Link_layer_security/firmware_project/bin/targets/my_blinky_nordic/app/@apache-mynewt-core/hw/bsp/nordic_pca10056/@apache-mynewt-core_hw_bsp_nordic_pca10056.a(sbrk.o)
 .ARM.attributes
                0x000000000000004f       0x33 /home/crepel/Documents/EPFL/bluetooth_stuff/Link_layer_security/firmware_project/bin/targets/my_blinky_nordic/app/@apache-mynewt-core/hw/mcu/nordic/nrf52xxx/@apache-mynewt-core_hw_mcu_nordic_nrf52xxx.a(hal_system.o)
 .ARM.attributes
                0x0000000000000082       0x33 /home/crepel/Documents/EPFL/bluetooth_stuff/Link_layer_security/firmware_project/bin/targets/my_blinky_nordic/app/@apache-mynewt-core/hw/mcu/nordic/nrf52xxx/@apache-mynewt-core_hw_mcu_nordic_nrf52xxx.a(system_nrf52.o)
 .ARM.attributes
                0x00000000000000b5       0x33 /home/crepel/Documents/EPFL/bluetooth_stuff/Link_layer_security/firmware_project/bin/targets/my_blinky_nordic/app/@apache-mynewt-core/libc/baselibc/@apache-mynewt-core_libc_baselibc.a(start.o)
 .ARM.attributes
                0x00000000000000e8       0x33 /home/crepel/Documents/EPFL/bluetooth_stuff/Link_layer_security/firmware_project/bin/targets/my_blinky_nordic/app/apps/blinky/apps_blinky.a(main.o)
 .ARM.attributes
                0x000000000000011b       0x33 /home/crepel/Documents/EPFL/bluetooth_stuff/Link_layer_security/firmware_project/bin/targets/my_blinky_nordic/generated/bin/my_blinky_nordic-sysinit-app.a(my_blinky_nordic-sysinit-app.o)
 .ARM.attributes
                0x000000000000014e       0x33 /home/crepel/Documents/EPFL/bluetooth_stuff/Link_layer_security/firmware_project/bin/targets/my_blinky_nordic/app/@apache-mynewt-core/hw/cmsis-core/@apache-mynewt-core_hw_cmsis-core.a(cmsis_nvic.o)
 .ARM.attributes
                0x0000000000000181       0x33 /home/crepel/Documents/EPFL/bluetooth_stuff/Link_layer_security/firmware_project/bin/targets/my_blinky_nordic/app/@apache-mynewt-core/hw/mcu/nordic/nrf52xxx/@apache-mynewt-core_hw_mcu_nordic_nrf52xxx.a(hal_gpio.o)
 .ARM.attributes
                0x00000000000001b4       0x33 /home/crepel/Documents/EPFL/bluetooth_stuff/Link_layer_security/firmware_project/bin/targets/my_blinky_nordic/app/@apache-mynewt-core/kernel/os/@apache-mynewt-core_kernel_os.a(os.o)
 .ARM.attributes
                0x00000000000001e7       0x33 /home/crepel/Documents/EPFL/bluetooth_stuff/Link_layer_security/firmware_project/bin/targets/my_blinky_nordic/app/@apache-mynewt-core/kernel/os/@apache-mynewt-core_kernel_os.a(os_callout.o)
 .ARM.attributes
                0x000000000000021a       0x33 /home/crepel/Documents/EPFL/bluetooth_stuff/Link_layer_security/firmware_project/bin/targets/my_blinky_nordic/app/@apache-mynewt-core/kernel/os/@apache-mynewt-core_kernel_os.a(os_dev.o)
 .ARM.attributes
                0x000000000000024d       0x33 /home/crepel/Documents/EPFL/bluetooth_stuff/Link_layer_security/firmware_project/bin/targets/my_blinky_nordic/app/@apache-mynewt-core/kernel/os/@apache-mynewt-core_kernel_os.a(os_eventq.o)
 .ARM.attributes
                0x0000000000000280       0x33 /home/crepel/Documents/EPFL/bluetooth_stuff/Link_layer_security/firmware_project/bin/targets/my_blinky_nordic/app/@apache-mynewt-core/kernel/os/@apache-mynewt-core_kernel_os.a(os_mempool.o)
 .ARM.attributes
                0x00000000000002b3       0x33 /home/crepel/Documents/EPFL/bluetooth_stuff/Link_layer_security/firmware_project/bin/targets/my_blinky_nordic/app/@apache-mynewt-core/kernel/os/@apache-mynewt-core_kernel_os.a(os_msys.o)
 .ARM.attributes
                0x00000000000002e6       0x33 /home/crepel/Documents/EPFL/bluetooth_stuff/Link_layer_security/firmware_project/bin/targets/my_blinky_nordic/app/@apache-mynewt-core/kernel/os/@apache-mynewt-core_kernel_os.a(os_sanity.o)
 .ARM.attributes
                0x0000000000000319       0x33 /home/crepel/Documents/EPFL/bluetooth_stuff/Link_layer_security/firmware_project/bin/targets/my_blinky_nordic/app/@apache-mynewt-core/kernel/os/@apache-mynewt-core_kernel_os.a(os_sched.o)
 .ARM.attributes
                0x000000000000034c       0x33 /home/crepel/Documents/EPFL/bluetooth_stuff/Link_layer_security/firmware_project/bin/targets/my_blinky_nordic/app/@apache-mynewt-core/kernel/os/@apache-mynewt-core_kernel_os.a(os_task.o)
 .ARM.attributes
                0x000000000000037f       0x33 /home/crepel/Documents/EPFL/bluetooth_stuff/Link_layer_security/firmware_project/bin/targets/my_blinky_nordic/app/@apache-mynewt-core/kernel/os/@apache-mynewt-core_kernel_os.a(os_time.o)
 .ARM.attributes
                0x00000000000003b2       0x33 /home/crepel/Documents/EPFL/bluetooth_stuff/Link_layer_security/firmware_project/bin/targets/my_blinky_nordic/app/@apache-mynewt-core/kernel/os/@apache-mynewt-core_kernel_os.a(os_arch_arm.o)
 .ARM.attributes
                0x00000000000003e5       0x33 /home/crepel/Documents/EPFL/bluetooth_stuff/Link_layer_security/firmware_project/bin/targets/my_blinky_nordic/app/@apache-mynewt-core/kernel/os/@apache-mynewt-core_kernel_os.a(os_fault.o)
 .ARM.attributes
                0x0000000000000418       0x33 /home/crepel/Documents/EPFL/bluetooth_stuff/Link_layer_security/firmware_project/bin/targets/my_blinky_nordic/app/@apache-mynewt-core/kernel/os/@apache-mynewt-core_kernel_os.a(os_mbuf.o)
 .ARM.attributes
                0x000000000000044b       0x33 /home/crepel/Documents/EPFL/bluetooth_stuff/Link_layer_security/firmware_project/bin/targets/my_blinky_nordic/app/@apache-mynewt-core/kernel/os/@apache-mynewt-core_kernel_os.a(os_mutex.o)
 .ARM.attributes
                0x000000000000047e       0x21 /home/crepel/Documents/EPFL/bluetooth_stuff/Link_layer_security/firmware_project/bin/targets/my_blinky_nordic/app/@apache-mynewt-core/kernel/os/@apache-mynewt-core_kernel_os.a(HAL_CM4.o)
 .ARM.attributes
                0x000000000000049f       0x33 /home/crepel/Documents/EPFL/bluetooth_stuff/Link_layer_security/firmware_project/bin/targets/my_blinky_nordic/app/@apache-mynewt-core/libc/baselibc/@apache-mynewt-core_libc_baselibc.a(memcpy.o)
 .ARM.attributes
                0x00000000000004d2       0x33 /home/crepel/Documents/EPFL/bluetooth_stuff/Link_layer_security/firmware_project/bin/targets/my_blinky_nordic/app/@apache-mynewt-core/libc/baselibc/@apache-mynewt-core_libc_baselibc.a(memset.o)
 .ARM.attributes
                0x0000000000000505       0x33 /home/crepel/Documents/EPFL/bluetooth_stuff/Link_layer_security/firmware_project/bin/targets/my_blinky_nordic/app/@apache-mynewt-core/libc/baselibc/@apache-mynewt-core_libc_baselibc.a(strlen.o)
 .ARM.attributes
                0x0000000000000538       0x33 /home/crepel/Documents/EPFL/bluetooth_stuff/Link_layer_security/firmware_project/bin/targets/my_blinky_nordic/app/@apache-mynewt-core/sys/flash_map/@apache-mynewt-core_sys_flash_map.a(flash_map.o)
 .ARM.attributes
                0x000000000000056b       0x33 /home/crepel/Documents/EPFL/bluetooth_stuff/Link_layer_security/firmware_project/bin/targets/my_blinky_nordic/app/@apache-mynewt-core/sys/log/modlog/@apache-mynewt-core_sys_log_modlog.a(modlog.o)
 .ARM.attributes
                0x000000000000059e       0x33 /home/crepel/Documents/EPFL/bluetooth_stuff/Link_layer_security/firmware_project/bin/targets/my_blinky_nordic/app/@apache-mynewt-core/sys/mfg/@apache-mynewt-core_sys_mfg.a(mfg.o)
 .ARM.attributes
                0x00000000000005d1       0x33 /home/crepel/Documents/EPFL/bluetooth_stuff/Link_layer_security/firmware_project/bin/targets/my_blinky_nordic/app/@apache-mynewt-core/sys/sysinit/@apache-mynewt-core_sys_sysinit.a(sysinit.o)
 .ARM.attributes
                0x0000000000000604       0x33 /home/crepel/Documents/EPFL/bluetooth_stuff/Link_layer_security/firmware_project/bin/targets/my_blinky_nordic/app/@apache-mynewt-core/util/mem/@apache-mynewt-core_util_mem.a(mem.o)
 .ARM.attributes
                0x0000000000000637       0x33 /home/crepel/Documents/EPFL/bluetooth_stuff/Link_layer_security/firmware_project/bin/targets/my_blinky_nordic/generated/bin/my_blinky_nordic-sysinit-app.a(my_blinky_nordic-sysflash.o)
 .ARM.attributes
                0x000000000000066a       0x33 /home/crepel/Documents/EPFL/bluetooth_stuff/Link_layer_security/firmware_project/bin/targets/my_blinky_nordic/app/@apache-mynewt-core/hw/bsp/nordic_pca10056/@apache-mynewt-core_hw_bsp_nordic_pca10056.a(hal_bsp.o)
 .ARM.attributes
                0x000000000000069d       0x33 /home/crepel/Documents/EPFL/bluetooth_stuff/Link_layer_security/firmware_project/bin/targets/my_blinky_nordic/app/@apache-mynewt-core/hw/hal/@apache-mynewt-core_hw_hal.a(hal_flash.o)
 .ARM.attributes
                0x00000000000006d0       0x33 /home/crepel/Documents/EPFL/bluetooth_stuff/Link_layer_security/firmware_project/bin/targets/my_blinky_nordic/app/@apache-mynewt-core/hw/mcu/nordic/nrf52xxx/@apache-mynewt-core_hw_mcu_nordic_nrf52xxx.a(hal_flash.o)
 .ARM.attributes
                0x0000000000000703       0x33 /home/crepel/Documents/EPFL/bluetooth_stuff/Link_layer_security/firmware_project/bin/targets/my_blinky_nordic/app/@apache-mynewt-core/hw/mcu/nordic/nrf52xxx/@apache-mynewt-core_hw_mcu_nordic_nrf52xxx.a(hal_os_tick.o)
 .ARM.attributes
                0x0000000000000736       0x33 /home/crepel/Documents/EPFL/bluetooth_stuff/Link_layer_security/firmware_project/bin/targets/my_blinky_nordic/app/@apache-mynewt-core/hw/mcu/nordic/nrf52xxx/@apache-mynewt-core_hw_mcu_nordic_nrf52xxx.a(hal_watchdog.o)
 .ARM.attributes
                0x0000000000000769       0x33 /home/crepel/Documents/EPFL/bluetooth_stuff/Link_layer_security/firmware_project/bin/targets/my_blinky_nordic/app/@apache-mynewt-core/hw/mcu/nordic/nrf52xxx/@apache-mynewt-core_hw_mcu_nordic_nrf52xxx.a(nrf52_periph.o)
 .ARM.attributes
                0x000000000000079c       0x33 /home/crepel/Documents/EPFL/bluetooth_stuff/Link_layer_security/firmware_project/bin/targets/my_blinky_nordic/app/@apache-mynewt-core/hw/mcu/nordic/nrf52xxx/@apache-mynewt-core_hw_mcu_nordic_nrf52xxx.a(hal_timer.o)
 .ARM.attributes
                0x00000000000007cf       0x33 /home/crepel/Documents/EPFL/bluetooth_stuff/Link_layer_security/firmware_project/bin/targets/my_blinky_nordic/app/@apache-mynewt-core/kernel/os/@apache-mynewt-core_kernel_os.a(os_cputime.o)
 .ARM.attributes
                0x0000000000000802       0x33 /home/crepel/Documents/EPFL/bluetooth_stuff/Link_layer_security/firmware_project/bin/targets/my_blinky_nordic/app/@apache-mynewt-core/hw/drivers/uart/uart_hal/@apache-mynewt-core_hw_drivers_uart_uart_hal.a(uart_hal.o)
 .ARM.attributes
                0x0000000000000835       0x33 /home/crepel/Documents/EPFL/bluetooth_stuff/Link_layer_security/firmware_project/bin/targets/my_blinky_nordic/app/@apache-mynewt-core/hw/mcu/nordic/nrf52xxx/@apache-mynewt-core_hw_mcu_nordic_nrf52xxx.a(hal_uart.o)

.comment        0x0000000000000000       0x7f
 .comment       0x0000000000000000       0x7f /home/crepel/Documents/EPFL/bluetooth_stuff/Link_layer_security/firmware_project/bin/targets/my_blinky_nordic/app/@apache-mynewt-core/hw/bsp/nordic_pca10056/@apache-mynewt-core_hw_bsp_nordic_pca10056.a(sbrk.o)
                                         0x80 (size before relaxing)
 .comment       0x000000000000007f       0x80 /home/crepel/Documents/EPFL/bluetooth_stuff/Link_layer_security/firmware_project/bin/targets/my_blinky_nordic/app/@apache-mynewt-core/hw/mcu/nordic/nrf52xxx/@apache-mynewt-core_hw_mcu_nordic_nrf52xxx.a(hal_system.o)
 .comment       0x000000000000007f       0x80 /home/crepel/Documents/EPFL/bluetooth_stuff/Link_layer_security/firmware_project/bin/targets/my_blinky_nordic/app/@apache-mynewt-core/hw/mcu/nordic/nrf52xxx/@apache-mynewt-core_hw_mcu_nordic_nrf52xxx.a(system_nrf52.o)
 .comment       0x000000000000007f       0x80 /home/crepel/Documents/EPFL/bluetooth_stuff/Link_layer_security/firmware_project/bin/targets/my_blinky_nordic/app/@apache-mynewt-core/libc/baselibc/@apache-mynewt-core_libc_baselibc.a(start.o)
 .comment       0x000000000000007f       0x80 /home/crepel/Documents/EPFL/bluetooth_stuff/Link_layer_security/firmware_project/bin/targets/my_blinky_nordic/app/apps/blinky/apps_blinky.a(main.o)
 .comment       0x000000000000007f       0x80 /home/crepel/Documents/EPFL/bluetooth_stuff/Link_layer_security/firmware_project/bin/targets/my_blinky_nordic/generated/bin/my_blinky_nordic-sysinit-app.a(my_blinky_nordic-sysinit-app.o)
 .comment       0x000000000000007f       0x80 /home/crepel/Documents/EPFL/bluetooth_stuff/Link_layer_security/firmware_project/bin/targets/my_blinky_nordic/app/@apache-mynewt-core/hw/cmsis-core/@apache-mynewt-core_hw_cmsis-core.a(cmsis_nvic.o)
 .comment       0x000000000000007f       0x80 /home/crepel/Documents/EPFL/bluetooth_stuff/Link_layer_security/firmware_project/bin/targets/my_blinky_nordic/app/@apache-mynewt-core/hw/mcu/nordic/nrf52xxx/@apache-mynewt-core_hw_mcu_nordic_nrf52xxx.a(hal_gpio.o)
 .comment       0x000000000000007f       0x80 /home/crepel/Documents/EPFL/bluetooth_stuff/Link_layer_security/firmware_project/bin/targets/my_blinky_nordic/app/@apache-mynewt-core/kernel/os/@apache-mynewt-core_kernel_os.a(os.o)
 .comment       0x000000000000007f       0x80 /home/crepel/Documents/EPFL/bluetooth_stuff/Link_layer_security/firmware_project/bin/targets/my_blinky_nordic/app/@apache-mynewt-core/kernel/os/@apache-mynewt-core_kernel_os.a(os_callout.o)
 .comment       0x000000000000007f       0x80 /home/crepel/Documents/EPFL/bluetooth_stuff/Link_layer_security/firmware_project/bin/targets/my_blinky_nordic/app/@apache-mynewt-core/kernel/os/@apache-mynewt-core_kernel_os.a(os_dev.o)
 .comment       0x000000000000007f       0x80 /home/crepel/Documents/EPFL/bluetooth_stuff/Link_layer_security/firmware_project/bin/targets/my_blinky_nordic/app/@apache-mynewt-core/kernel/os/@apache-mynewt-core_kernel_os.a(os_eventq.o)
 .comment       0x000000000000007f       0x80 /home/crepel/Documents/EPFL/bluetooth_stuff/Link_layer_security/firmware_project/bin/targets/my_blinky_nordic/app/@apache-mynewt-core/kernel/os/@apache-mynewt-core_kernel_os.a(os_mempool.o)
 .comment       0x000000000000007f       0x80 /home/crepel/Documents/EPFL/bluetooth_stuff/Link_layer_security/firmware_project/bin/targets/my_blinky_nordic/app/@apache-mynewt-core/kernel/os/@apache-mynewt-core_kernel_os.a(os_msys.o)
 .comment       0x000000000000007f       0x80 /home/crepel/Documents/EPFL/bluetooth_stuff/Link_layer_security/firmware_project/bin/targets/my_blinky_nordic/app/@apache-mynewt-core/kernel/os/@apache-mynewt-core_kernel_os.a(os_sanity.o)
 .comment       0x000000000000007f       0x80 /home/crepel/Documents/EPFL/bluetooth_stuff/Link_layer_security/firmware_project/bin/targets/my_blinky_nordic/app/@apache-mynewt-core/kernel/os/@apache-mynewt-core_kernel_os.a(os_sched.o)
 .comment       0x000000000000007f       0x80 /home/crepel/Documents/EPFL/bluetooth_stuff/Link_layer_security/firmware_project/bin/targets/my_blinky_nordic/app/@apache-mynewt-core/kernel/os/@apache-mynewt-core_kernel_os.a(os_task.o)
 .comment       0x000000000000007f       0x80 /home/crepel/Documents/EPFL/bluetooth_stuff/Link_layer_security/firmware_project/bin/targets/my_blinky_nordic/app/@apache-mynewt-core/kernel/os/@apache-mynewt-core_kernel_os.a(os_time.o)
 .comment       0x000000000000007f       0x80 /home/crepel/Documents/EPFL/bluetooth_stuff/Link_layer_security/firmware_project/bin/targets/my_blinky_nordic/app/@apache-mynewt-core/kernel/os/@apache-mynewt-core_kernel_os.a(os_arch_arm.o)
 .comment       0x000000000000007f       0x80 /home/crepel/Documents/EPFL/bluetooth_stuff/Link_layer_security/firmware_project/bin/targets/my_blinky_nordic/app/@apache-mynewt-core/kernel/os/@apache-mynewt-core_kernel_os.a(os_fault.o)
 .comment       0x000000000000007f       0x80 /home/crepel/Documents/EPFL/bluetooth_stuff/Link_layer_security/firmware_project/bin/targets/my_blinky_nordic/app/@apache-mynewt-core/kernel/os/@apache-mynewt-core_kernel_os.a(os_mbuf.o)
 .comment       0x000000000000007f       0x80 /home/crepel/Documents/EPFL/bluetooth_stuff/Link_layer_security/firmware_project/bin/targets/my_blinky_nordic/app/@apache-mynewt-core/kernel/os/@apache-mynewt-core_kernel_os.a(os_mutex.o)
 .comment       0x000000000000007f       0x80 /home/crepel/Documents/EPFL/bluetooth_stuff/Link_layer_security/firmware_project/bin/targets/my_blinky_nordic/app/@apache-mynewt-core/libc/baselibc/@apache-mynewt-core_libc_baselibc.a(memcpy.o)
 .comment       0x000000000000007f       0x80 /home/crepel/Documents/EPFL/bluetooth_stuff/Link_layer_security/firmware_project/bin/targets/my_blinky_nordic/app/@apache-mynewt-core/libc/baselibc/@apache-mynewt-core_libc_baselibc.a(memset.o)
 .comment       0x000000000000007f       0x80 /home/crepel/Documents/EPFL/bluetooth_stuff/Link_layer_security/firmware_project/bin/targets/my_blinky_nordic/app/@apache-mynewt-core/libc/baselibc/@apache-mynewt-core_libc_baselibc.a(strlen.o)
 .comment       0x000000000000007f       0x80 /home/crepel/Documents/EPFL/bluetooth_stuff/Link_layer_security/firmware_project/bin/targets/my_blinky_nordic/app/@apache-mynewt-core/sys/flash_map/@apache-mynewt-core_sys_flash_map.a(flash_map.o)
 .comment       0x000000000000007f       0x80 /home/crepel/Documents/EPFL/bluetooth_stuff/Link_layer_security/firmware_project/bin/targets/my_blinky_nordic/app/@apache-mynewt-core/sys/log/modlog/@apache-mynewt-core_sys_log_modlog.a(modlog.o)
 .comment       0x000000000000007f       0x80 /home/crepel/Documents/EPFL/bluetooth_stuff/Link_layer_security/firmware_project/bin/targets/my_blinky_nordic/app/@apache-mynewt-core/sys/mfg/@apache-mynewt-core_sys_mfg.a(mfg.o)
 .comment       0x000000000000007f       0x80 /home/crepel/Documents/EPFL/bluetooth_stuff/Link_layer_security/firmware_project/bin/targets/my_blinky_nordic/app/@apache-mynewt-core/sys/sysinit/@apache-mynewt-core_sys_sysinit.a(sysinit.o)
 .comment       0x000000000000007f       0x80 /home/crepel/Documents/EPFL/bluetooth_stuff/Link_layer_security/firmware_project/bin/targets/my_blinky_nordic/app/@apache-mynewt-core/util/mem/@apache-mynewt-core_util_mem.a(mem.o)
 .comment       0x000000000000007f       0x80 /home/crepel/Documents/EPFL/bluetooth_stuff/Link_layer_security/firmware_project/bin/targets/my_blinky_nordic/generated/bin/my_blinky_nordic-sysinit-app.a(my_blinky_nordic-sysflash.o)
 .comment       0x000000000000007f       0x80 /home/crepel/Documents/EPFL/bluetooth_stuff/Link_layer_security/firmware_project/bin/targets/my_blinky_nordic/app/@apache-mynewt-core/hw/bsp/nordic_pca10056/@apache-mynewt-core_hw_bsp_nordic_pca10056.a(hal_bsp.o)
 .comment       0x000000000000007f       0x80 /home/crepel/Documents/EPFL/bluetooth_stuff/Link_layer_security/firmware_project/bin/targets/my_blinky_nordic/app/@apache-mynewt-core/hw/hal/@apache-mynewt-core_hw_hal.a(hal_flash.o)
 .comment       0x000000000000007f       0x80 /home/crepel/Documents/EPFL/bluetooth_stuff/Link_layer_security/firmware_project/bin/targets/my_blinky_nordic/app/@apache-mynewt-core/hw/mcu/nordic/nrf52xxx/@apache-mynewt-core_hw_mcu_nordic_nrf52xxx.a(hal_flash.o)
 .comment       0x000000000000007f       0x80 /home/crepel/Documents/EPFL/bluetooth_stuff/Link_layer_security/firmware_project/bin/targets/my_blinky_nordic/app/@apache-mynewt-core/hw/mcu/nordic/nrf52xxx/@apache-mynewt-core_hw_mcu_nordic_nrf52xxx.a(hal_os_tick.o)
 .comment       0x000000000000007f       0x80 /home/crepel/Documents/EPFL/bluetooth_stuff/Link_layer_security/firmware_project/bin/targets/my_blinky_nordic/app/@apache-mynewt-core/hw/mcu/nordic/nrf52xxx/@apache-mynewt-core_hw_mcu_nordic_nrf52xxx.a(hal_watchdog.o)
 .comment       0x000000000000007f       0x80 /home/crepel/Documents/EPFL/bluetooth_stuff/Link_layer_security/firmware_project/bin/targets/my_blinky_nordic/app/@apache-mynewt-core/hw/mcu/nordic/nrf52xxx/@apache-mynewt-core_hw_mcu_nordic_nrf52xxx.a(nrf52_periph.o)
 .comment       0x000000000000007f       0x80 /home/crepel/Documents/EPFL/bluetooth_stuff/Link_layer_security/firmware_project/bin/targets/my_blinky_nordic/app/@apache-mynewt-core/hw/mcu/nordic/nrf52xxx/@apache-mynewt-core_hw_mcu_nordic_nrf52xxx.a(hal_timer.o)
 .comment       0x000000000000007f       0x80 /home/crepel/Documents/EPFL/bluetooth_stuff/Link_layer_security/firmware_project/bin/targets/my_blinky_nordic/app/@apache-mynewt-core/kernel/os/@apache-mynewt-core_kernel_os.a(os_cputime.o)
 .comment       0x000000000000007f       0x80 /home/crepel/Documents/EPFL/bluetooth_stuff/Link_layer_security/firmware_project/bin/targets/my_blinky_nordic/app/@apache-mynewt-core/hw/drivers/uart/uart_hal/@apache-mynewt-core_hw_drivers_uart_uart_hal.a(uart_hal.o)
 .comment       0x000000000000007f       0x80 /home/crepel/Documents/EPFL/bluetooth_stuff/Link_layer_security/firmware_project/bin/targets/my_blinky_nordic/app/@apache-mynewt-core/hw/mcu/nordic/nrf52xxx/@apache-mynewt-core_hw_mcu_nordic_nrf52xxx.a(hal_uart.o)

.svc_table      0x0000000000000000        0x4
 .svc_table     0x0000000000000000        0x4 /home/crepel/Documents/EPFL/bluetooth_stuff/Link_layer_security/firmware_project/bin/targets/my_blinky_nordic/app/@apache-mynewt-core/kernel/os/@apache-mynewt-core_kernel_os.a(SVC_Table.o)
                0x0000000000000000                SVC_Count
                0x0000000000000000                SVC_Table

.debug_line     0x0000000000000000     0xd492
 .debug_line    0x0000000000000000       0xc0 /home/crepel/Documents/EPFL/bluetooth_stuff/Link_layer_security/firmware_project/bin/targets/my_blinky_nordic/app/@apache-mynewt-core/hw/bsp/nordic_pca10056/@apache-mynewt-core_hw_bsp_nordic_pca10056.a(gcc_startup_nrf52840.o)
 .debug_line    0x00000000000000c0       0x8b /home/crepel/Documents/EPFL/bluetooth_stuff/Link_layer_security/firmware_project/bin/targets/my_blinky_nordic/app/@apache-mynewt-core/hw/bsp/nordic_pca10056/@apache-mynewt-core_hw_bsp_nordic_pca10056.a(sbrk.o)
 .debug_line    0x000000000000014b      0x256 /home/crepel/Documents/EPFL/bluetooth_stuff/Link_layer_security/firmware_project/bin/targets/my_blinky_nordic/app/@apache-mynewt-core/hw/mcu/nordic/nrf52xxx/@apache-mynewt-core_hw_mcu_nordic_nrf52xxx.a(hal_system.o)
 .debug_line    0x00000000000003a1      0x2d6 /home/crepel/Documents/EPFL/bluetooth_stuff/Link_layer_security/firmware_project/bin/targets/my_blinky_nordic/app/@apache-mynewt-core/hw/mcu/nordic/nrf52xxx/@apache-mynewt-core_hw_mcu_nordic_nrf52xxx.a(system_nrf52.o)
 .debug_line    0x0000000000000677      0x41e /home/crepel/Documents/EPFL/bluetooth_stuff/Link_layer_security/firmware_project/bin/targets/my_blinky_nordic/app/@apache-mynewt-core/libc/baselibc/@apache-mynewt-core_libc_baselibc.a(start.o)
 .debug_line    0x0000000000000a95      0x33e /home/crepel/Documents/EPFL/bluetooth_stuff/Link_layer_security/firmware_project/bin/targets/my_blinky_nordic/app/apps/blinky/apps_blinky.a(main.o)
 .debug_line    0x0000000000000dd3       0x7e /home/crepel/Documents/EPFL/bluetooth_stuff/Link_layer_security/firmware_project/bin/targets/my_blinky_nordic/generated/bin/my_blinky_nordic-sysinit-app.a(my_blinky_nordic-sysinit-app.o)
 .debug_line    0x0000000000000e51      0x166 /home/crepel/Documents/EPFL/bluetooth_stuff/Link_layer_security/firmware_project/bin/targets/my_blinky_nordic/app/@apache-mynewt-core/hw/cmsis-core/@apache-mynewt-core_hw_cmsis-core.a(cmsis_nvic.o)
 .debug_line    0x0000000000000fb7      0x733 /home/crepel/Documents/EPFL/bluetooth_stuff/Link_layer_security/firmware_project/bin/targets/my_blinky_nordic/app/@apache-mynewt-core/hw/mcu/nordic/nrf52xxx/@apache-mynewt-core_hw_mcu_nordic_nrf52xxx.a(hal_gpio.o)
 .debug_line    0x00000000000016ea      0x72b /home/crepel/Documents/EPFL/bluetooth_stuff/Link_layer_security/firmware_project/bin/targets/my_blinky_nordic/app/@apache-mynewt-core/kernel/os/@apache-mynewt-core_kernel_os.a(os.o)
 .debug_line    0x0000000000001e15      0x652 /home/crepel/Documents/EPFL/bluetooth_stuff/Link_layer_security/firmware_project/bin/targets/my_blinky_nordic/app/@apache-mynewt-core/kernel/os/@apache-mynewt-core_kernel_os.a(os_callout.o)
 .debug_line    0x0000000000002467      0x62f /home/crepel/Documents/EPFL/bluetooth_stuff/Link_layer_security/firmware_project/bin/targets/my_blinky_nordic/app/@apache-mynewt-core/kernel/os/@apache-mynewt-core_kernel_os.a(os_dev.o)
 .debug_line    0x0000000000002a96      0x723 /home/crepel/Documents/EPFL/bluetooth_stuff/Link_layer_security/firmware_project/bin/targets/my_blinky_nordic/app/@apache-mynewt-core/kernel/os/@apache-mynewt-core_kernel_os.a(os_eventq.o)
 .debug_line    0x00000000000031b9      0x683 /home/crepel/Documents/EPFL/bluetooth_stuff/Link_layer_security/firmware_project/bin/targets/my_blinky_nordic/app/@apache-mynewt-core/kernel/os/@apache-mynewt-core_kernel_os.a(os_mempool.o)
 .debug_line    0x000000000000383c      0x67e /home/crepel/Documents/EPFL/bluetooth_stuff/Link_layer_security/firmware_project/bin/targets/my_blinky_nordic/app/@apache-mynewt-core/kernel/os/@apache-mynewt-core_kernel_os.a(os_msys.o)
 .debug_line    0x0000000000003eba      0x5b7 /home/crepel/Documents/EPFL/bluetooth_stuff/Link_layer_security/firmware_project/bin/targets/my_blinky_nordic/app/@apache-mynewt-core/kernel/os/@apache-mynewt-core_kernel_os.a(os_sanity.o)
 .debug_line    0x0000000000004471      0x760 /home/crepel/Documents/EPFL/bluetooth_stuff/Link_layer_security/firmware_project/bin/targets/my_blinky_nordic/app/@apache-mynewt-core/kernel/os/@apache-mynewt-core_kernel_os.a(os_sched.o)
 .debug_line    0x0000000000004bd1      0x63c /home/crepel/Documents/EPFL/bluetooth_stuff/Link_layer_security/firmware_project/bin/targets/my_blinky_nordic/app/@apache-mynewt-core/kernel/os/@apache-mynewt-core_kernel_os.a(os_task.o)
 .debug_line    0x000000000000520d      0x6e2 /home/crepel/Documents/EPFL/bluetooth_stuff/Link_layer_security/firmware_project/bin/targets/my_blinky_nordic/app/@apache-mynewt-core/kernel/os/@apache-mynewt-core_kernel_os.a(os_time.o)
 .debug_line    0x00000000000058ef      0x69f /home/crepel/Documents/EPFL/bluetooth_stuff/Link_layer_security/firmware_project/bin/targets/my_blinky_nordic/app/@apache-mynewt-core/kernel/os/@apache-mynewt-core_kernel_os.a(os_arch_arm.o)
 .debug_line    0x0000000000005f8e      0x55b /home/crepel/Documents/EPFL/bluetooth_stuff/Link_layer_security/firmware_project/bin/targets/my_blinky_nordic/app/@apache-mynewt-core/kernel/os/@apache-mynewt-core_kernel_os.a(os_fault.o)
 .debug_line    0x00000000000064e9      0xad5 /home/crepel/Documents/EPFL/bluetooth_stuff/Link_layer_security/firmware_project/bin/targets/my_blinky_nordic/app/@apache-mynewt-core/kernel/os/@apache-mynewt-core_kernel_os.a(os_mbuf.o)
 .debug_line    0x0000000000006fbe      0x5eb /home/crepel/Documents/EPFL/bluetooth_stuff/Link_layer_security/firmware_project/bin/targets/my_blinky_nordic/app/@apache-mynewt-core/kernel/os/@apache-mynewt-core_kernel_os.a(os_mutex.o)
 .debug_line    0x00000000000075a9       0xc9 /home/crepel/Documents/EPFL/bluetooth_stuff/Link_layer_security/firmware_project/bin/targets/my_blinky_nordic/app/@apache-mynewt-core/kernel/os/@apache-mynewt-core_kernel_os.a(HAL_CM4.o)
 .debug_line    0x0000000000007672       0x9f /home/crepel/Documents/EPFL/bluetooth_stuff/Link_layer_security/firmware_project/bin/targets/my_blinky_nordic/app/@apache-mynewt-core/libc/baselibc/@apache-mynewt-core_libc_baselibc.a(memcpy.o)
 .debug_line    0x0000000000007711      0x187 /home/crepel/Documents/EPFL/bluetooth_stuff/Link_layer_security/firmware_project/bin/targets/my_blinky_nordic/app/@apache-mynewt-core/libc/baselibc/@apache-mynewt-core_libc_baselibc.a(memset.o)
 .debug_line    0x0000000000007898       0x9b /home/crepel/Documents/EPFL/bluetooth_stuff/Link_layer_security/firmware_project/bin/targets/my_blinky_nordic/app/@apache-mynewt-core/libc/baselibc/@apache-mynewt-core_libc_baselibc.a(strlen.o)
 .debug_line    0x0000000000007933      0x7f1 /home/crepel/Documents/EPFL/bluetooth_stuff/Link_layer_security/firmware_project/bin/targets/my_blinky_nordic/app/@apache-mynewt-core/sys/flash_map/@apache-mynewt-core_sys_flash_map.a(flash_map.o)
 .debug_line    0x0000000000008124      0x40f /home/crepel/Documents/EPFL/bluetooth_stuff/Link_layer_security/firmware_project/bin/targets/my_blinky_nordic/app/@apache-mynewt-core/sys/log/modlog/@apache-mynewt-core_sys_log_modlog.a(modlog.o)
 .debug_line    0x0000000000008533      0x66b /home/crepel/Documents/EPFL/bluetooth_stuff/Link_layer_security/firmware_project/bin/targets/my_blinky_nordic/app/@apache-mynewt-core/sys/mfg/@apache-mynewt-core_sys_mfg.a(mfg.o)
 .debug_line    0x0000000000008b9e      0x44d /home/crepel/Documents/EPFL/bluetooth_stuff/Link_layer_security/firmware_project/bin/targets/my_blinky_nordic/app/@apache-mynewt-core/sys/sysinit/@apache-mynewt-core_sys_sysinit.a(sysinit.o)
 .debug_line    0x0000000000008feb      0x553 /home/crepel/Documents/EPFL/bluetooth_stuff/Link_layer_security/firmware_project/bin/targets/my_blinky_nordic/app/@apache-mynewt-core/util/mem/@apache-mynewt-core_util_mem.a(mem.o)
 .debug_line    0x000000000000953e      0x158 /home/crepel/Documents/EPFL/bluetooth_stuff/Link_layer_security/firmware_project/bin/targets/my_blinky_nordic/generated/bin/my_blinky_nordic-sysinit-app.a(my_blinky_nordic-sysflash.o)
 .debug_line    0x0000000000009696      0x59d /home/crepel/Documents/EPFL/bluetooth_stuff/Link_layer_security/firmware_project/bin/targets/my_blinky_nordic/app/@apache-mynewt-core/hw/bsp/nordic_pca10056/@apache-mynewt-core_hw_bsp_nordic_pca10056.a(hal_bsp.o)
 .debug_line    0x0000000000009c33      0x69f /home/crepel/Documents/EPFL/bluetooth_stuff/Link_layer_security/firmware_project/bin/targets/my_blinky_nordic/app/@apache-mynewt-core/hw/hal/@apache-mynewt-core_hw_hal.a(hal_flash.o)
 .debug_line    0x000000000000a2d2      0x366 /home/crepel/Documents/EPFL/bluetooth_stuff/Link_layer_security/firmware_project/bin/targets/my_blinky_nordic/app/@apache-mynewt-core/hw/mcu/nordic/nrf52xxx/@apache-mynewt-core_hw_mcu_nordic_nrf52xxx.a(hal_flash.o)
 .debug_line    0x000000000000a638      0x642 /home/crepel/Documents/EPFL/bluetooth_stuff/Link_layer_security/firmware_project/bin/targets/my_blinky_nordic/app/@apache-mynewt-core/hw/mcu/nordic/nrf52xxx/@apache-mynewt-core_hw_mcu_nordic_nrf52xxx.a(hal_os_tick.o)
 .debug_line    0x000000000000ac7a      0x560 /home/crepel/Documents/EPFL/bluetooth_stuff/Link_layer_security/firmware_project/bin/targets/my_blinky_nordic/app/@apache-mynewt-core/hw/mcu/nordic/nrf52xxx/@apache-mynewt-core_hw_mcu_nordic_nrf52xxx.a(hal_watchdog.o)
 .debug_line    0x000000000000b1da      0x62f /home/crepel/Documents/EPFL/bluetooth_stuff/Link_layer_security/firmware_project/bin/targets/my_blinky_nordic/app/@apache-mynewt-core/hw/mcu/nordic/nrf52xxx/@apache-mynewt-core_hw_mcu_nordic_nrf52xxx.a(nrf52_periph.o)
 .debug_line    0x000000000000b809      0x907 /home/crepel/Documents/EPFL/bluetooth_stuff/Link_layer_security/firmware_project/bin/targets/my_blinky_nordic/app/@apache-mynewt-core/hw/mcu/nordic/nrf52xxx/@apache-mynewt-core_hw_mcu_nordic_nrf52xxx.a(hal_timer.o)
 .debug_line    0x000000000000c110      0x5a6 /home/crepel/Documents/EPFL/bluetooth_stuff/Link_layer_security/firmware_project/bin/targets/my_blinky_nordic/app/@apache-mynewt-core/kernel/os/@apache-mynewt-core_kernel_os.a(os_cputime.o)
 .debug_line    0x000000000000c6b6      0x65c /home/crepel/Documents/EPFL/bluetooth_stuff/Link_layer_security/firmware_project/bin/targets/my_blinky_nordic/app/@apache-mynewt-core/hw/drivers/uart/uart_hal/@apache-mynewt-core_hw_drivers_uart_uart_hal.a(uart_hal.o)
 .debug_line    0x000000000000cd12      0x780 /home/crepel/Documents/EPFL/bluetooth_stuff/Link_layer_security/firmware_project/bin/targets/my_blinky_nordic/app/@apache-mynewt-core/hw/mcu/nordic/nrf52xxx/@apache-mynewt-core_hw_mcu_nordic_nrf52xxx.a(hal_uart.o)

.debug_info     0x0000000000000000    0x1eeac
 .debug_info    0x0000000000000000       0x26 /home/crepel/Documents/EPFL/bluetooth_stuff/Link_layer_security/firmware_project/bin/targets/my_blinky_nordic/app/@apache-mynewt-core/hw/bsp/nordic_pca10056/@apache-mynewt-core_hw_bsp_nordic_pca10056.a(gcc_startup_nrf52840.o)
 .debug_info    0x0000000000000026      0x119 /home/crepel/Documents/EPFL/bluetooth_stuff/Link_layer_security/firmware_project/bin/targets/my_blinky_nordic/app/@apache-mynewt-core/hw/bsp/nordic_pca10056/@apache-mynewt-core_hw_bsp_nordic_pca10056.a(sbrk.o)
 .debug_info    0x000000000000013f      0x9b8 /home/crepel/Documents/EPFL/bluetooth_stuff/Link_layer_security/firmware_project/bin/targets/my_blinky_nordic/app/@apache-mynewt-core/hw/mcu/nordic/nrf52xxx/@apache-mynewt-core_hw_mcu_nordic_nrf52xxx.a(hal_system.o)
 .debug_info    0x0000000000000af7      0xab2 /home/crepel/Documents/EPFL/bluetooth_stuff/Link_layer_security/firmware_project/bin/targets/my_blinky_nordic/app/@apache-mynewt-core/hw/mcu/nordic/nrf52xxx/@apache-mynewt-core_hw_mcu_nordic_nrf52xxx.a(system_nrf52.o)
 .debug_info    0x00000000000015a9      0x656 /home/crepel/Documents/EPFL/bluetooth_stuff/Link_layer_security/firmware_project/bin/targets/my_blinky_nordic/app/@apache-mynewt-core/libc/baselibc/@apache-mynewt-core_libc_baselibc.a(start.o)
 .debug_info    0x0000000000001bff      0x614 /home/crepel/Documents/EPFL/bluetooth_stuff/Link_layer_security/firmware_project/bin/targets/my_blinky_nordic/app/apps/blinky/apps_blinky.a(main.o)
 .debug_info    0x0000000000002213       0x8c /home/crepel/Documents/EPFL/bluetooth_stuff/Link_layer_security/firmware_project/bin/targets/my_blinky_nordic/generated/bin/my_blinky_nordic-sysinit-app.a(my_blinky_nordic-sysinit-app.o)
 .debug_info    0x000000000000229f      0x2da /home/crepel/Documents/EPFL/bluetooth_stuff/Link_layer_security/firmware_project/bin/targets/my_blinky_nordic/app/@apache-mynewt-core/hw/cmsis-core/@apache-mynewt-core_hw_cmsis-core.a(cmsis_nvic.o)
 .debug_info    0x0000000000002579     0x13fc /home/crepel/Documents/EPFL/bluetooth_stuff/Link_layer_security/firmware_project/bin/targets/my_blinky_nordic/app/@apache-mynewt-core/hw/mcu/nordic/nrf52xxx/@apache-mynewt-core_hw_mcu_nordic_nrf52xxx.a(hal_gpio.o)
 .debug_info    0x0000000000003975     0x1029 /home/crepel/Documents/EPFL/bluetooth_stuff/Link_layer_security/firmware_project/bin/targets/my_blinky_nordic/app/@apache-mynewt-core/kernel/os/@apache-mynewt-core_kernel_os.a(os.o)
 .debug_info    0x000000000000499e      0xc5e /home/crepel/Documents/EPFL/bluetooth_stuff/Link_layer_security/firmware_project/bin/targets/my_blinky_nordic/app/@apache-mynewt-core/kernel/os/@apache-mynewt-core_kernel_os.a(os_callout.o)
 .debug_info    0x00000000000055fc      0xe6b /home/crepel/Documents/EPFL/bluetooth_stuff/Link_layer_security/firmware_project/bin/targets/my_blinky_nordic/app/@apache-mynewt-core/kernel/os/@apache-mynewt-core_kernel_os.a(os_dev.o)
 .debug_info    0x0000000000006467      0xe58 /home/crepel/Documents/EPFL/bluetooth_stuff/Link_layer_security/firmware_project/bin/targets/my_blinky_nordic/app/@apache-mynewt-core/kernel/os/@apache-mynewt-core_kernel_os.a(os_eventq.o)
 .debug_info    0x00000000000072bf      0xe04 /home/crepel/Documents/EPFL/bluetooth_stuff/Link_layer_security/firmware_project/bin/targets/my_blinky_nordic/app/@apache-mynewt-core/kernel/os/@apache-mynewt-core_kernel_os.a(os_mempool.o)
 .debug_info    0x00000000000080c3      0xdc5 /home/crepel/Documents/EPFL/bluetooth_stuff/Link_layer_security/firmware_project/bin/targets/my_blinky_nordic/app/@apache-mynewt-core/kernel/os/@apache-mynewt-core_kernel_os.a(os_msys.o)
 .debug_info    0x0000000000008e88      0xa67 /home/crepel/Documents/EPFL/bluetooth_stuff/Link_layer_security/firmware_project/bin/targets/my_blinky_nordic/app/@apache-mynewt-core/kernel/os/@apache-mynewt-core_kernel_os.a(os_sanity.o)
 .debug_info    0x00000000000098ef      0xd29 /home/crepel/Documents/EPFL/bluetooth_stuff/Link_layer_security/firmware_project/bin/targets/my_blinky_nordic/app/@apache-mynewt-core/kernel/os/@apache-mynewt-core_kernel_os.a(os_sched.o)
 .debug_info    0x000000000000a618      0xd77 /home/crepel/Documents/EPFL/bluetooth_stuff/Link_layer_security/firmware_project/bin/targets/my_blinky_nordic/app/@apache-mynewt-core/kernel/os/@apache-mynewt-core_kernel_os.a(os_task.o)
 .debug_info    0x000000000000b38f      0xfe4 /home/crepel/Documents/EPFL/bluetooth_stuff/Link_layer_security/firmware_project/bin/targets/my_blinky_nordic/app/@apache-mynewt-core/kernel/os/@apache-mynewt-core_kernel_os.a(os_time.o)
 .debug_info    0x000000000000c373     0x1399 /home/crepel/Documents/EPFL/bluetooth_stuff/Link_layer_security/firmware_project/bin/targets/my_blinky_nordic/app/@apache-mynewt-core/kernel/os/@apache-mynewt-core_kernel_os.a(os_arch_arm.o)
 .debug_info    0x000000000000d70c      0xb33 /home/crepel/Documents/EPFL/bluetooth_stuff/Link_layer_security/firmware_project/bin/targets/my_blinky_nordic/app/@apache-mynewt-core/kernel/os/@apache-mynewt-core_kernel_os.a(os_fault.o)
 .debug_info    0x000000000000e23f     0x1e92 /home/crepel/Documents/EPFL/bluetooth_stuff/Link_layer_security/firmware_project/bin/targets/my_blinky_nordic/app/@apache-mynewt-core/kernel/os/@apache-mynewt-core_kernel_os.a(os_mbuf.o)
 .debug_info    0x00000000000100d1      0xa6d /home/crepel/Documents/EPFL/bluetooth_stuff/Link_layer_security/firmware_project/bin/targets/my_blinky_nordic/app/@apache-mynewt-core/kernel/os/@apache-mynewt-core_kernel_os.a(os_mutex.o)
 .debug_info    0x0000000000010b3e       0x26 /home/crepel/Documents/EPFL/bluetooth_stuff/Link_layer_security/firmware_project/bin/targets/my_blinky_nordic/app/@apache-mynewt-core/kernel/os/@apache-mynewt-core_kernel_os.a(HAL_CM4.o)
 .debug_info    0x0000000000010b64       0xf4 /home/crepel/Documents/EPFL/bluetooth_stuff/Link_layer_security/firmware_project/bin/targets/my_blinky_nordic/app/@apache-mynewt-core/libc/baselibc/@apache-mynewt-core_libc_baselibc.a(memcpy.o)
 .debug_info    0x0000000000010c58      0x123 /home/crepel/Documents/EPFL/bluetooth_stuff/Link_layer_security/firmware_project/bin/targets/my_blinky_nordic/app/@apache-mynewt-core/libc/baselibc/@apache-mynewt-core_libc_baselibc.a(memset.o)
 .debug_info    0x0000000000010d7b       0x94 /home/crepel/Documents/EPFL/bluetooth_stuff/Link_layer_security/firmware_project/bin/targets/my_blinky_nordic/app/@apache-mynewt-core/libc/baselibc/@apache-mynewt-core_libc_baselibc.a(strlen.o)
 .debug_info    0x0000000000010e0f     0x1339 /home/crepel/Documents/EPFL/bluetooth_stuff/Link_layer_security/firmware_project/bin/targets/my_blinky_nordic/app/@apache-mynewt-core/sys/flash_map/@apache-mynewt-core_sys_flash_map.a(flash_map.o)
 .debug_info    0x0000000000012148      0x619 /home/crepel/Documents/EPFL/bluetooth_stuff/Link_layer_security/firmware_project/bin/targets/my_blinky_nordic/app/@apache-mynewt-core/sys/log/modlog/@apache-mynewt-core_sys_log_modlog.a(modlog.o)
 .debug_info    0x0000000000012761      0xd97 /home/crepel/Documents/EPFL/bluetooth_stuff/Link_layer_security/firmware_project/bin/targets/my_blinky_nordic/app/@apache-mynewt-core/sys/mfg/@apache-mynewt-core_sys_mfg.a(mfg.o)
 .debug_info    0x00000000000134f8      0x6f7 /home/crepel/Documents/EPFL/bluetooth_stuff/Link_layer_security/firmware_project/bin/targets/my_blinky_nordic/app/@apache-mynewt-core/sys/sysinit/@apache-mynewt-core_sys_sysinit.a(sysinit.o)
 .debug_info    0x0000000000013bef      0xf11 /home/crepel/Documents/EPFL/bluetooth_stuff/Link_layer_security/firmware_project/bin/targets/my_blinky_nordic/app/@apache-mynewt-core/util/mem/@apache-mynewt-core_util_mem.a(mem.o)
 .debug_info    0x0000000000014b00      0x144 /home/crepel/Documents/EPFL/bluetooth_stuff/Link_layer_security/firmware_project/bin/targets/my_blinky_nordic/generated/bin/my_blinky_nordic-sysinit-app.a(my_blinky_nordic-sysflash.o)
 .debug_info    0x0000000000014c44      0x8f5 /home/crepel/Documents/EPFL/bluetooth_stuff/Link_layer_security/firmware_project/bin/targets/my_blinky_nordic/app/@apache-mynewt-core/hw/bsp/nordic_pca10056/@apache-mynewt-core_hw_bsp_nordic_pca10056.a(hal_bsp.o)
 .debug_info    0x0000000000015539     0x104a /home/crepel/Documents/EPFL/bluetooth_stuff/Link_layer_security/firmware_project/bin/targets/my_blinky_nordic/app/@apache-mynewt-core/hw/hal/@apache-mynewt-core_hw_hal.a(hal_flash.o)
 .debug_info    0x0000000000016583      0x7dc /home/crepel/Documents/EPFL/bluetooth_stuff/Link_layer_security/firmware_project/bin/targets/my_blinky_nordic/app/@apache-mynewt-core/hw/mcu/nordic/nrf52xxx/@apache-mynewt-core_hw_mcu_nordic_nrf52xxx.a(hal_flash.o)
 .debug_info    0x0000000000016d5f     0x121a /home/crepel/Documents/EPFL/bluetooth_stuff/Link_layer_security/firmware_project/bin/targets/my_blinky_nordic/app/@apache-mynewt-core/hw/mcu/nordic/nrf52xxx/@apache-mynewt-core_hw_mcu_nordic_nrf52xxx.a(hal_os_tick.o)
 .debug_info    0x0000000000017f79      0xdc4 /home/crepel/Documents/EPFL/bluetooth_stuff/Link_layer_security/firmware_project/bin/targets/my_blinky_nordic/app/@apache-mynewt-core/hw/mcu/nordic/nrf52xxx/@apache-mynewt-core_hw_mcu_nordic_nrf52xxx.a(hal_watchdog.o)
 .debug_info    0x0000000000018d3d      0xbb2 /home/crepel/Documents/EPFL/bluetooth_stuff/Link_layer_security/firmware_project/bin/targets/my_blinky_nordic/app/@apache-mynewt-core/hw/mcu/nordic/nrf52xxx/@apache-mynewt-core_hw_mcu_nordic_nrf52xxx.a(nrf52_periph.o)
 .debug_info    0x00000000000198ef     0x25ed /home/crepel/Documents/EPFL/bluetooth_stuff/Link_layer_security/firmware_project/bin/targets/my_blinky_nordic/app/@apache-mynewt-core/hw/mcu/nordic/nrf52xxx/@apache-mynewt-core_hw_mcu_nordic_nrf52xxx.a(hal_timer.o)
 .debug_info    0x000000000001bedc      0xa60 /home/crepel/Documents/EPFL/bluetooth_stuff/Link_layer_security/firmware_project/bin/targets/my_blinky_nordic/app/@apache-mynewt-core/kernel/os/@apache-mynewt-core_kernel_os.a(os_cputime.o)
 .debug_info    0x000000000001c93c      0xf4d /home/crepel/Documents/EPFL/bluetooth_stuff/Link_layer_security/firmware_project/bin/targets/my_blinky_nordic/app/@apache-mynewt-core/hw/drivers/uart/uart_hal/@apache-mynewt-core_hw_drivers_uart_uart_hal.a(uart_hal.o)
 .debug_info    0x000000000001d889     0x1623 /home/crepel/Documents/EPFL/bluetooth_stuff/Link_layer_security/firmware_project/bin/targets/my_blinky_nordic/app/@apache-mynewt-core/hw/mcu/nordic/nrf52xxx/@apache-mynewt-core_hw_mcu_nordic_nrf52xxx.a(hal_uart.o)

.debug_abbrev   0x0000000000000000     0x5c44
 .debug_abbrev  0x0000000000000000       0x14 /home/crepel/Documents/EPFL/bluetooth_stuff/Link_layer_security/firmware_project/bin/targets/my_blinky_nordic/app/@apache-mynewt-core/hw/bsp/nordic_pca10056/@apache-mynewt-core_hw_bsp_nordic_pca10056.a(gcc_startup_nrf52840.o)
 .debug_abbrev  0x0000000000000014       0xb9 /home/crepel/Documents/EPFL/bluetooth_stuff/Link_layer_security/firmware_project/bin/targets/my_blinky_nordic/app/@apache-mynewt-core/hw/bsp/nordic_pca10056/@apache-mynewt-core_hw_bsp_nordic_pca10056.a(sbrk.o)
 .debug_abbrev  0x00000000000000cd      0x1da /home/crepel/Documents/EPFL/bluetooth_stuff/Link_layer_security/firmware_project/bin/targets/my_blinky_nordic/app/@apache-mynewt-core/hw/mcu/nordic/nrf52xxx/@apache-mynewt-core_hw_mcu_nordic_nrf52xxx.a(hal_system.o)
 .debug_abbrev  0x00000000000002a7      0x1a4 /home/crepel/Documents/EPFL/bluetooth_stuff/Link_layer_security/firmware_project/bin/targets/my_blinky_nordic/app/@apache-mynewt-core/hw/mcu/nordic/nrf52xxx/@apache-mynewt-core_hw_mcu_nordic_nrf52xxx.a(system_nrf52.o)
 .debug_abbrev  0x000000000000044b      0x13e /home/crepel/Documents/EPFL/bluetooth_stuff/Link_layer_security/firmware_project/bin/targets/my_blinky_nordic/app/@apache-mynewt-core/libc/baselibc/@apache-mynewt-core_libc_baselibc.a(start.o)
 .debug_abbrev  0x0000000000000589      0x159 /home/crepel/Documents/EPFL/bluetooth_stuff/Link_layer_security/firmware_project/bin/targets/my_blinky_nordic/app/apps/blinky/apps_blinky.a(main.o)
 .debug_abbrev  0x00000000000006e2       0x4a /home/crepel/Documents/EPFL/bluetooth_stuff/Link_layer_security/firmware_project/bin/targets/my_blinky_nordic/generated/bin/my_blinky_nordic-sysinit-app.a(my_blinky_nordic-sysinit-app.o)
 .debug_abbrev  0x000000000000072c       0xf5 /home/crepel/Documents/EPFL/bluetooth_stuff/Link_layer_security/firmware_project/bin/targets/my_blinky_nordic/app/@apache-mynewt-core/hw/cmsis-core/@apache-mynewt-core_hw_cmsis-core.a(cmsis_nvic.o)
 .debug_abbrev  0x0000000000000821      0x3e1 /home/crepel/Documents/EPFL/bluetooth_stuff/Link_layer_security/firmware_project/bin/targets/my_blinky_nordic/app/@apache-mynewt-core/hw/mcu/nordic/nrf52xxx/@apache-mynewt-core_hw_mcu_nordic_nrf52xxx.a(hal_gpio.o)
 .debug_abbrev  0x0000000000000c02      0x2bc /home/crepel/Documents/EPFL/bluetooth_stuff/Link_layer_security/firmware_project/bin/targets/my_blinky_nordic/app/@apache-mynewt-core/kernel/os/@apache-mynewt-core_kernel_os.a(os.o)
 .debug_abbrev  0x0000000000000ebe      0x295 /home/crepel/Documents/EPFL/bluetooth_stuff/Link_layer_security/firmware_project/bin/targets/my_blinky_nordic/app/@apache-mynewt-core/kernel/os/@apache-mynewt-core_kernel_os.a(os_callout.o)
 .debug_abbrev  0x0000000000001153      0x292 /home/crepel/Documents/EPFL/bluetooth_stuff/Link_layer_security/firmware_project/bin/targets/my_blinky_nordic/app/@apache-mynewt-core/kernel/os/@apache-mynewt-core_kernel_os.a(os_dev.o)
 .debug_abbrev  0x00000000000013e5      0x33d /home/crepel/Documents/EPFL/bluetooth_stuff/Link_layer_security/firmware_project/bin/targets/my_blinky_nordic/app/@apache-mynewt-core/kernel/os/@apache-mynewt-core_kernel_os.a(os_eventq.o)
 .debug_abbrev  0x0000000000001722      0x2a1 /home/crepel/Documents/EPFL/bluetooth_stuff/Link_layer_security/firmware_project/bin/targets/my_blinky_nordic/app/@apache-mynewt-core/kernel/os/@apache-mynewt-core_kernel_os.a(os_mempool.o)
 .debug_abbrev  0x00000000000019c3      0x2b8 /home/crepel/Documents/EPFL/bluetooth_stuff/Link_layer_security/firmware_project/bin/targets/my_blinky_nordic/app/@apache-mynewt-core/kernel/os/@apache-mynewt-core_kernel_os.a(os_msys.o)
 .debug_abbrev  0x0000000000001c7b      0x228 /home/crepel/Documents/EPFL/bluetooth_stuff/Link_layer_security/firmware_project/bin/targets/my_blinky_nordic/app/@apache-mynewt-core/kernel/os/@apache-mynewt-core_kernel_os.a(os_sanity.o)
 .debug_abbrev  0x0000000000001ea3      0x32f /home/crepel/Documents/EPFL/bluetooth_stuff/Link_layer_security/firmware_project/bin/targets/my_blinky_nordic/app/@apache-mynewt-core/kernel/os/@apache-mynewt-core_kernel_os.a(os_sched.o)
 .debug_abbrev  0x00000000000021d2      0x2c7 /home/crepel/Documents/EPFL/bluetooth_stuff/Link_layer_security/firmware_project/bin/targets/my_blinky_nordic/app/@apache-mynewt-core/kernel/os/@apache-mynewt-core_kernel_os.a(os_task.o)
 .debug_abbrev  0x0000000000002499      0x331 /home/crepel/Documents/EPFL/bluetooth_stuff/Link_layer_security/firmware_project/bin/targets/my_blinky_nordic/app/@apache-mynewt-core/kernel/os/@apache-mynewt-core_kernel_os.a(os_time.o)
 .debug_abbrev  0x00000000000027ca      0x395 /home/crepel/Documents/EPFL/bluetooth_stuff/Link_layer_security/firmware_project/bin/targets/my_blinky_nordic/app/@apache-mynewt-core/kernel/os/@apache-mynewt-core_kernel_os.a(os_arch_arm.o)
 .debug_abbrev  0x0000000000002b5f      0x1da /home/crepel/Documents/EPFL/bluetooth_stuff/Link_layer_security/firmware_project/bin/targets/my_blinky_nordic/app/@apache-mynewt-core/kernel/os/@apache-mynewt-core_kernel_os.a(os_fault.o)
 .debug_abbrev  0x0000000000002d39      0x3f1 /home/crepel/Documents/EPFL/bluetooth_stuff/Link_layer_security/firmware_project/bin/targets/my_blinky_nordic/app/@apache-mynewt-core/kernel/os/@apache-mynewt-core_kernel_os.a(os_mbuf.o)
 .debug_abbrev  0x000000000000312a      0x207 /home/crepel/Documents/EPFL/bluetooth_stuff/Link_layer_security/firmware_project/bin/targets/my_blinky_nordic/app/@apache-mynewt-core/kernel/os/@apache-mynewt-core_kernel_os.a(os_mutex.o)
 .debug_abbrev  0x0000000000003331       0x14 /home/crepel/Documents/EPFL/bluetooth_stuff/Link_layer_security/firmware_project/bin/targets/my_blinky_nordic/app/@apache-mynewt-core/kernel/os/@apache-mynewt-core_kernel_os.a(HAL_CM4.o)
 .debug_abbrev  0x0000000000003345       0x8d /home/crepel/Documents/EPFL/bluetooth_stuff/Link_layer_security/firmware_project/bin/targets/my_blinky_nordic/app/@apache-mynewt-core/libc/baselibc/@apache-mynewt-core_libc_baselibc.a(memcpy.o)
 .debug_abbrev  0x00000000000033d2       0xb9 /home/crepel/Documents/EPFL/bluetooth_stuff/Link_layer_security/firmware_project/bin/targets/my_blinky_nordic/app/@apache-mynewt-core/libc/baselibc/@apache-mynewt-core_libc_baselibc.a(memset.o)
 .debug_abbrev  0x000000000000348b       0x81 /home/crepel/Documents/EPFL/bluetooth_stuff/Link_layer_security/firmware_project/bin/targets/my_blinky_nordic/app/@apache-mynewt-core/libc/baselibc/@apache-mynewt-core_libc_baselibc.a(strlen.o)
 .debug_abbrev  0x000000000000350c      0x31e /home/crepel/Documents/EPFL/bluetooth_stuff/Link_layer_security/firmware_project/bin/targets/my_blinky_nordic/app/@apache-mynewt-core/sys/flash_map/@apache-mynewt-core_sys_flash_map.a(flash_map.o)
 .debug_abbrev  0x000000000000382a      0x108 /home/crepel/Documents/EPFL/bluetooth_stuff/Link_layer_security/firmware_project/bin/targets/my_blinky_nordic/app/@apache-mynewt-core/sys/log/modlog/@apache-mynewt-core_sys_log_modlog.a(modlog.o)
 .debug_abbrev  0x0000000000003932      0x2cb /home/crepel/Documents/EPFL/bluetooth_stuff/Link_layer_security/firmware_project/bin/targets/my_blinky_nordic/app/@apache-mynewt-core/sys/mfg/@apache-mynewt-core_sys_mfg.a(mfg.o)
 .debug_abbrev  0x0000000000003bfd      0x19c /home/crepel/Documents/EPFL/bluetooth_stuff/Link_layer_security/firmware_project/bin/targets/my_blinky_nordic/app/@apache-mynewt-core/sys/sysinit/@apache-mynewt-core_sys_sysinit.a(sysinit.o)
 .debug_abbrev  0x0000000000003d99      0x261 /home/crepel/Documents/EPFL/bluetooth_stuff/Link_layer_security/firmware_project/bin/targets/my_blinky_nordic/app/@apache-mynewt-core/util/mem/@apache-mynewt-core_util_mem.a(mem.o)
 .debug_abbrev  0x0000000000003ffa       0x91 /home/crepel/Documents/EPFL/bluetooth_stuff/Link_layer_security/firmware_project/bin/targets/my_blinky_nordic/generated/bin/my_blinky_nordic-sysinit-app.a(my_blinky_nordic-sysflash.o)
 .debug_abbrev  0x000000000000408b      0x1b7 /home/crepel/Documents/EPFL/bluetooth_stuff/Link_layer_security/firmware_project/bin/targets/my_blinky_nordic/app/@apache-mynewt-core/hw/bsp/nordic_pca10056/@apache-mynewt-core_hw_bsp_nordic_pca10056.a(hal_bsp.o)
 .debug_abbrev  0x0000000000004242      0x2d9 /home/crepel/Documents/EPFL/bluetooth_stuff/Link_layer_security/firmware_project/bin/targets/my_blinky_nordic/app/@apache-mynewt-core/hw/hal/@apache-mynewt-core_hw_hal.a(hal_flash.o)
 .debug_abbrev  0x000000000000451b      0x257 /home/crepel/Documents/EPFL/bluetooth_stuff/Link_layer_security/firmware_project/bin/targets/my_blinky_nordic/app/@apache-mynewt-core/hw/mcu/nordic/nrf52xxx/@apache-mynewt-core_hw_mcu_nordic_nrf52xxx.a(hal_flash.o)
 .debug_abbrev  0x0000000000004772      0x33b /home/crepel/Documents/EPFL/bluetooth_stuff/Link_layer_security/firmware_project/bin/targets/my_blinky_nordic/app/@apache-mynewt-core/hw/mcu/nordic/nrf52xxx/@apache-mynewt-core_hw_mcu_nordic_nrf52xxx.a(hal_os_tick.o)
 .debug_abbrev  0x0000000000004aad      0x28f /home/crepel/Documents/EPFL/bluetooth_stuff/Link_layer_security/firmware_project/bin/targets/my_blinky_nordic/app/@apache-mynewt-core/hw/mcu/nordic/nrf52xxx/@apache-mynewt-core_hw_mcu_nordic_nrf52xxx.a(hal_watchdog.o)
 .debug_abbrev  0x0000000000004d3c      0x22f /home/crepel/Documents/EPFL/bluetooth_stuff/Link_layer_security/firmware_project/bin/targets/my_blinky_nordic/app/@apache-mynewt-core/hw/mcu/nordic/nrf52xxx/@apache-mynewt-core_hw_mcu_nordic_nrf52xxx.a(nrf52_periph.o)
 .debug_abbrev  0x0000000000004f6b      0x48e /home/crepel/Documents/EPFL/bluetooth_stuff/Link_layer_security/firmware_project/bin/targets/my_blinky_nordic/app/@apache-mynewt-core/hw/mcu/nordic/nrf52xxx/@apache-mynewt-core_hw_mcu_nordic_nrf52xxx.a(hal_timer.o)
 .debug_abbrev  0x00000000000053f9      0x1eb /home/crepel/Documents/EPFL/bluetooth_stuff/Link_layer_security/firmware_project/bin/targets/my_blinky_nordic/app/@apache-mynewt-core/kernel/os/@apache-mynewt-core_kernel_os.a(os_cputime.o)
 .debug_abbrev  0x00000000000055e4      0x23d /home/crepel/Documents/EPFL/bluetooth_stuff/Link_layer_security/firmware_project/bin/targets/my_blinky_nordic/app/@apache-mynewt-core/hw/drivers/uart/uart_hal/@apache-mynewt-core_hw_drivers_uart_uart_hal.a(uart_hal.o)
 .debug_abbrev  0x0000000000005821      0x423 /home/crepel/Documents/EPFL/bluetooth_stuff/Link_layer_security/firmware_project/bin/targets/my_blinky_nordic/app/@apache-mynewt-core/hw/mcu/nordic/nrf52xxx/@apache-mynewt-core_hw_mcu_nordic_nrf52xxx.a(hal_uart.o)

.debug_aranges  0x0000000000000000      0xdd0
 .debug_aranges
                0x0000000000000000       0x20 /home/crepel/Documents/EPFL/bluetooth_stuff/Link_layer_security/firmware_project/bin/targets/my_blinky_nordic/app/@apache-mynewt-core/hw/bsp/nordic_pca10056/@apache-mynewt-core_hw_bsp_nordic_pca10056.a(gcc_startup_nrf52840.o)
 .debug_aranges
                0x0000000000000020       0x28 /home/crepel/Documents/EPFL/bluetooth_stuff/Link_layer_security/firmware_project/bin/targets/my_blinky_nordic/app/@apache-mynewt-core/hw/bsp/nordic_pca10056/@apache-mynewt-core_hw_bsp_nordic_pca10056.a(sbrk.o)
 .debug_aranges
                0x0000000000000048       0x38 /home/crepel/Documents/EPFL/bluetooth_stuff/Link_layer_security/firmware_project/bin/targets/my_blinky_nordic/app/@apache-mynewt-core/hw/mcu/nordic/nrf52xxx/@apache-mynewt-core_hw_mcu_nordic_nrf52xxx.a(hal_system.o)
 .debug_aranges
                0x0000000000000080       0x58 /home/crepel/Documents/EPFL/bluetooth_stuff/Link_layer_security/firmware_project/bin/targets/my_blinky_nordic/app/@apache-mynewt-core/hw/mcu/nordic/nrf52xxx/@apache-mynewt-core_hw_mcu_nordic_nrf52xxx.a(system_nrf52.o)
 .debug_aranges
                0x00000000000000d8       0x28 /home/crepel/Documents/EPFL/bluetooth_stuff/Link_layer_security/firmware_project/bin/targets/my_blinky_nordic/app/@apache-mynewt-core/libc/baselibc/@apache-mynewt-core_libc_baselibc.a(start.o)
 .debug_aranges
                0x0000000000000100       0x20 /home/crepel/Documents/EPFL/bluetooth_stuff/Link_layer_security/firmware_project/bin/targets/my_blinky_nordic/app/apps/blinky/apps_blinky.a(main.o)
 .debug_aranges
                0x0000000000000120       0x20 /home/crepel/Documents/EPFL/bluetooth_stuff/Link_layer_security/firmware_project/bin/targets/my_blinky_nordic/generated/bin/my_blinky_nordic-sysinit-app.a(my_blinky_nordic-sysinit-app.o)
 .debug_aranges
                0x0000000000000140       0x20 /home/crepel/Documents/EPFL/bluetooth_stuff/Link_layer_security/firmware_project/bin/targets/my_blinky_nordic/app/@apache-mynewt-core/hw/cmsis-core/@apache-mynewt-core_hw_cmsis-core.a(cmsis_nvic.o)
 .debug_aranges
                0x0000000000000160       0x88 /home/crepel/Documents/EPFL/bluetooth_stuff/Link_layer_security/firmware_project/bin/targets/my_blinky_nordic/app/@apache-mynewt-core/hw/mcu/nordic/nrf52xxx/@apache-mynewt-core_hw_mcu_nordic_nrf52xxx.a(hal_gpio.o)
 .debug_aranges
                0x00000000000001e8       0x60 /home/crepel/Documents/EPFL/bluetooth_stuff/Link_layer_security/firmware_project/bin/targets/my_blinky_nordic/app/@apache-mynewt-core/kernel/os/@apache-mynewt-core_kernel_os.a(os.o)
 .debug_aranges
                0x0000000000000248       0x48 /home/crepel/Documents/EPFL/bluetooth_stuff/Link_layer_security/firmware_project/bin/targets/my_blinky_nordic/app/@apache-mynewt-core/kernel/os/@apache-mynewt-core_kernel_os.a(os_callout.o)
 .debug_aranges
                0x0000000000000290       0x88 /home/crepel/Documents/EPFL/bluetooth_stuff/Link_layer_security/firmware_project/bin/targets/my_blinky_nordic/app/@apache-mynewt-core/kernel/os/@apache-mynewt-core_kernel_os.a(os_dev.o)
 .debug_aranges
                0x0000000000000318       0x70 /home/crepel/Documents/EPFL/bluetooth_stuff/Link_layer_security/firmware_project/bin/targets/my_blinky_nordic/app/@apache-mynewt-core/kernel/os/@apache-mynewt-core_kernel_os.a(os_eventq.o)
 .debug_aranges
                0x0000000000000388       0x78 /home/crepel/Documents/EPFL/bluetooth_stuff/Link_layer_security/firmware_project/bin/targets/my_blinky_nordic/app/@apache-mynewt-core/kernel/os/@apache-mynewt-core_kernel_os.a(os_mempool.o)
 .debug_aranges
                0x0000000000000400       0x68 /home/crepel/Documents/EPFL/bluetooth_stuff/Link_layer_security/firmware_project/bin/targets/my_blinky_nordic/app/@apache-mynewt-core/kernel/os/@apache-mynewt-core_kernel_os.a(os_msys.o)
 .debug_aranges
                0x0000000000000468       0x58 /home/crepel/Documents/EPFL/bluetooth_stuff/Link_layer_security/firmware_project/bin/targets/my_blinky_nordic/app/@apache-mynewt-core/kernel/os/@apache-mynewt-core_kernel_os.a(os_sanity.o)
 .debug_aranges
                0x00000000000004c0       0x78 /home/crepel/Documents/EPFL/bluetooth_stuff/Link_layer_security/firmware_project/bin/targets/my_blinky_nordic/app/@apache-mynewt-core/kernel/os/@apache-mynewt-core_kernel_os.a(os_sched.o)
 .debug_aranges
                0x0000000000000538       0x50 /home/crepel/Documents/EPFL/bluetooth_stuff/Link_layer_security/firmware_project/bin/targets/my_blinky_nordic/app/@apache-mynewt-core/kernel/os/@apache-mynewt-core_kernel_os.a(os_task.o)
 .debug_aranges
                0x0000000000000588       0xa0 /home/crepel/Documents/EPFL/bluetooth_stuff/Link_layer_security/firmware_project/bin/targets/my_blinky_nordic/app/@apache-mynewt-core/kernel/os/@apache-mynewt-core_kernel_os.a(os_time.o)
 .debug_aranges
                0x0000000000000628       0x70 /home/crepel/Documents/EPFL/bluetooth_stuff/Link_layer_security/firmware_project/bin/targets/my_blinky_nordic/app/@apache-mynewt-core/kernel/os/@apache-mynewt-core_kernel_os.a(os_arch_arm.o)
 .debug_aranges
                0x0000000000000698       0x28 /home/crepel/Documents/EPFL/bluetooth_stuff/Link_layer_security/firmware_project/bin/targets/my_blinky_nordic/app/@apache-mynewt-core/kernel/os/@apache-mynewt-core_kernel_os.a(os_fault.o)
 .debug_aranges
                0x00000000000006c0       0xe8 /home/crepel/Documents/EPFL/bluetooth_stuff/Link_layer_security/firmware_project/bin/targets/my_blinky_nordic/app/@apache-mynewt-core/kernel/os/@apache-mynewt-core_kernel_os.a(os_mbuf.o)
 .debug_aranges
                0x00000000000007a8       0x30 /home/crepel/Documents/EPFL/bluetooth_stuff/Link_layer_security/firmware_project/bin/targets/my_blinky_nordic/app/@apache-mynewt-core/kernel/os/@apache-mynewt-core_kernel_os.a(os_mutex.o)
 .debug_aranges
                0x00000000000007d8       0x20 /home/crepel/Documents/EPFL/bluetooth_stuff/Link_layer_security/firmware_project/bin/targets/my_blinky_nordic/app/@apache-mynewt-core/kernel/os/@apache-mynewt-core_kernel_os.a(HAL_CM4.o)
 .debug_aranges
                0x00000000000007f8       0x20 /home/crepel/Documents/EPFL/bluetooth_stuff/Link_layer_security/firmware_project/bin/targets/my_blinky_nordic/app/@apache-mynewt-core/libc/baselibc/@apache-mynewt-core_libc_baselibc.a(memcpy.o)
 .debug_aranges
                0x0000000000000818       0x20 /home/crepel/Documents/EPFL/bluetooth_stuff/Link_layer_security/firmware_project/bin/targets/my_blinky_nordic/app/@apache-mynewt-core/libc/baselibc/@apache-mynewt-core_libc_baselibc.a(memset.o)
 .debug_aranges
                0x0000000000000838       0x20 /home/crepel/Documents/EPFL/bluetooth_stuff/Link_layer_security/firmware_project/bin/targets/my_blinky_nordic/app/@apache-mynewt-core/libc/baselibc/@apache-mynewt-core_libc_baselibc.a(strlen.o)
 .debug_aranges
                0x0000000000000858       0xa8 /home/crepel/Documents/EPFL/bluetooth_stuff/Link_layer_security/firmware_project/bin/targets/my_blinky_nordic/app/@apache-mynewt-core/sys/flash_map/@apache-mynewt-core_sys_flash_map.a(flash_map.o)
 .debug_aranges
                0x0000000000000900       0x20 /home/crepel/Documents/EPFL/bluetooth_stuff/Link_layer_security/firmware_project/bin/targets/my_blinky_nordic/app/@apache-mynewt-core/sys/log/modlog/@apache-mynewt-core_sys_log_modlog.a(modlog.o)
 .debug_aranges
                0x0000000000000920       0x80 /home/crepel/Documents/EPFL/bluetooth_stuff/Link_layer_security/firmware_project/bin/targets/my_blinky_nordic/app/@apache-mynewt-core/sys/mfg/@apache-mynewt-core_sys_mfg.a(mfg.o)
 .debug_aranges
                0x00000000000009a0       0x38 /home/crepel/Documents/EPFL/bluetooth_stuff/Link_layer_security/firmware_project/bin/targets/my_blinky_nordic/app/@apache-mynewt-core/sys/sysinit/@apache-mynewt-core_sys_sysinit.a(sysinit.o)
 .debug_aranges
                0x00000000000009d8       0x58 /home/crepel/Documents/EPFL/bluetooth_stuff/Link_layer_security/firmware_project/bin/targets/my_blinky_nordic/app/@apache-mynewt-core/util/mem/@apache-mynewt-core_util_mem.a(mem.o)
 .debug_aranges
                0x0000000000000a30       0x18 /home/crepel/Documents/EPFL/bluetooth_stuff/Link_layer_security/firmware_project/bin/targets/my_blinky_nordic/generated/bin/my_blinky_nordic-sysinit-app.a(my_blinky_nordic-sysflash.o)
 .debug_aranges
                0x0000000000000a48       0x40 /home/crepel/Documents/EPFL/bluetooth_stuff/Link_layer_security/firmware_project/bin/targets/my_blinky_nordic/app/@apache-mynewt-core/hw/bsp/nordic_pca10056/@apache-mynewt-core_hw_bsp_nordic_pca10056.a(hal_bsp.o)
 .debug_aranges
                0x0000000000000a88       0x88 /home/crepel/Documents/EPFL/bluetooth_stuff/Link_layer_security/firmware_project/bin/targets/my_blinky_nordic/app/@apache-mynewt-core/hw/hal/@apache-mynewt-core_hw_hal.a(hal_flash.o)
 .debug_aranges
                0x0000000000000b10       0x48 /home/crepel/Documents/EPFL/bluetooth_stuff/Link_layer_security/firmware_project/bin/targets/my_blinky_nordic/app/@apache-mynewt-core/hw/mcu/nordic/nrf52xxx/@apache-mynewt-core_hw_mcu_nordic_nrf52xxx.a(hal_flash.o)
 .debug_aranges
                0x0000000000000b58       0x30 /home/crepel/Documents/EPFL/bluetooth_stuff/Link_layer_security/firmware_project/bin/targets/my_blinky_nordic/app/@apache-mynewt-core/hw/mcu/nordic/nrf52xxx/@apache-mynewt-core_hw_mcu_nordic_nrf52xxx.a(hal_os_tick.o)
 .debug_aranges
                0x0000000000000b88       0x40 /home/crepel/Documents/EPFL/bluetooth_stuff/Link_layer_security/firmware_project/bin/targets/my_blinky_nordic/app/@apache-mynewt-core/hw/mcu/nordic/nrf52xxx/@apache-mynewt-core_hw_mcu_nordic_nrf52xxx.a(hal_watchdog.o)
 .debug_aranges
                0x0000000000000bc8       0x30 /home/crepel/Documents/EPFL/bluetooth_stuff/Link_layer_security/firmware_project/bin/targets/my_blinky_nordic/app/@apache-mynewt-core/hw/mcu/nordic/nrf52xxx/@apache-mynewt-core_hw_mcu_nordic_nrf52xxx.a(nrf52_periph.o)
 .debug_aranges
                0x0000000000000bf8       0xa8 /home/crepel/Documents/EPFL/bluetooth_stuff/Link_layer_security/firmware_project/bin/targets/my_blinky_nordic/app/@apache-mynewt-core/hw/mcu/nordic/nrf52xxx/@apache-mynewt-core_hw_mcu_nordic_nrf52xxx.a(hal_timer.o)
 .debug_aranges
                0x0000000000000ca0       0x60 /home/crepel/Documents/EPFL/bluetooth_stuff/Link_layer_security/firmware_project/bin/targets/my_blinky_nordic/app/@apache-mynewt-core/kernel/os/@apache-mynewt-core_kernel_os.a(os_cputime.o)
 .debug_aranges
                0x0000000000000d00       0x58 /home/crepel/Documents/EPFL/bluetooth_stuff/Link_layer_security/firmware_project/bin/targets/my_blinky_nordic/app/@apache-mynewt-core/hw/drivers/uart/uart_hal/@apache-mynewt-core_hw_drivers_uart_uart_hal.a(uart_hal.o)
 .debug_aranges
                0x0000000000000d58       0x78 /home/crepel/Documents/EPFL/bluetooth_stuff/Link_layer_security/firmware_project/bin/targets/my_blinky_nordic/app/@apache-mynewt-core/hw/mcu/nordic/nrf52xxx/@apache-mynewt-core_hw_mcu_nordic_nrf52xxx.a(hal_uart.o)

.debug_str      0x0000000000000000     0x4b23
 .debug_str     0x0000000000000000       0xb9 /home/crepel/Documents/EPFL/bluetooth_stuff/Link_layer_security/firmware_project/bin/targets/my_blinky_nordic/app/@apache-mynewt-core/hw/bsp/nordic_pca10056/@apache-mynewt-core_hw_bsp_nordic_pca10056.a(gcc_startup_nrf52840.o)
 .debug_str     0x00000000000000b9      0x17f /home/crepel/Documents/EPFL/bluetooth_stuff/Link_layer_security/firmware_project/bin/targets/my_blinky_nordic/app/@apache-mynewt-core/hw/bsp/nordic_pca10056/@apache-mynewt-core_hw_bsp_nordic_pca10056.a(sbrk.o)
                                        0x20e (size before relaxing)
 .debug_str     0x0000000000000238      0x496 /home/crepel/Documents/EPFL/bluetooth_stuff/Link_layer_security/firmware_project/bin/targets/my_blinky_nordic/app/@apache-mynewt-core/hw/mcu/nordic/nrf52xxx/@apache-mynewt-core_hw_mcu_nordic_nrf52xxx.a(hal_system.o)
                                        0x635 (size before relaxing)
 .debug_str     0x00000000000006ce      0x241 /home/crepel/Documents/EPFL/bluetooth_stuff/Link_layer_security/firmware_project/bin/targets/my_blinky_nordic/app/@apache-mynewt-core/hw/mcu/nordic/nrf52xxx/@apache-mynewt-core_hw_mcu_nordic_nrf52xxx.a(system_nrf52.o)
                                        0x66d (size before relaxing)
 .debug_str     0x000000000000090f      0x35a /home/crepel/Documents/EPFL/bluetooth_stuff/Link_layer_security/firmware_project/bin/targets/my_blinky_nordic/app/@apache-mynewt-core/libc/baselibc/@apache-mynewt-core_libc_baselibc.a(start.o)
                                        0x5e7 (size before relaxing)
 .debug_str     0x0000000000000c69       0x9a /home/crepel/Documents/EPFL/bluetooth_stuff/Link_layer_security/firmware_project/bin/targets/my_blinky_nordic/app/apps/blinky/apps_blinky.a(main.o)
                                        0x51d (size before relaxing)
 .debug_str     0x0000000000000d03       0x7a /home/crepel/Documents/EPFL/bluetooth_stuff/Link_layer_security/firmware_project/bin/targets/my_blinky_nordic/generated/bin/my_blinky_nordic-sysinit-app.a(my_blinky_nordic-sysinit-app.o)
                                        0x188 (size before relaxing)
 .debug_str     0x0000000000000d7d       0x78 /home/crepel/Documents/EPFL/bluetooth_stuff/Link_layer_security/firmware_project/bin/targets/my_blinky_nordic/app/@apache-mynewt-core/hw/cmsis-core/@apache-mynewt-core_hw_cmsis-core.a(cmsis_nvic.o)
                                        0x2c4 (size before relaxing)
 .debug_str     0x0000000000000df5      0x68f /home/crepel/Documents/EPFL/bluetooth_stuff/Link_layer_security/firmware_project/bin/targets/my_blinky_nordic/app/@apache-mynewt-core/hw/mcu/nordic/nrf52xxx/@apache-mynewt-core_hw_mcu_nordic_nrf52xxx.a(hal_gpio.o)
                                        0xd32 (size before relaxing)
 .debug_str     0x0000000000001484      0x404 /home/crepel/Documents/EPFL/bluetooth_stuff/Link_layer_security/firmware_project/bin/targets/my_blinky_nordic/app/@apache-mynewt-core/kernel/os/@apache-mynewt-core_kernel_os.a(os.o)
                                        0xa20 (size before relaxing)
 .debug_str     0x0000000000001888      0x155 /home/crepel/Documents/EPFL/bluetooth_stuff/Link_layer_security/firmware_project/bin/targets/my_blinky_nordic/app/@apache-mynewt-core/kernel/os/@apache-mynewt-core_kernel_os.a(os_callout.o)
                                        0x8e3 (size before relaxing)
 .debug_str     0x00000000000019dd      0x230 /home/crepel/Documents/EPFL/bluetooth_stuff/Link_layer_security/firmware_project/bin/targets/my_blinky_nordic/app/@apache-mynewt-core/kernel/os/@apache-mynewt-core_kernel_os.a(os_dev.o)
                                        0x8d0 (size before relaxing)
 .debug_str     0x0000000000001c0d      0x18c /home/crepel/Documents/EPFL/bluetooth_stuff/Link_layer_security/firmware_project/bin/targets/my_blinky_nordic/app/@apache-mynewt-core/kernel/os/@apache-mynewt-core_kernel_os.a(os_eventq.o)
                                        0x888 (size before relaxing)
 .debug_str     0x0000000000001d99      0x25f /home/crepel/Documents/EPFL/bluetooth_stuff/Link_layer_security/firmware_project/bin/targets/my_blinky_nordic/app/@apache-mynewt-core/kernel/os/@apache-mynewt-core_kernel_os.a(os_mempool.o)
                                        0x966 (size before relaxing)
 .debug_str     0x0000000000001ff8      0x206 /home/crepel/Documents/EPFL/bluetooth_stuff/Link_layer_security/firmware_project/bin/targets/my_blinky_nordic/app/@apache-mynewt-core/kernel/os/@apache-mynewt-core_kernel_os.a(os_msys.o)
                                        0x944 (size before relaxing)
 .debug_str     0x00000000000021fe      0x148 /home/crepel/Documents/EPFL/bluetooth_stuff/Link_layer_security/firmware_project/bin/targets/my_blinky_nordic/app/@apache-mynewt-core/kernel/os/@apache-mynewt-core_kernel_os.a(os_sanity.o)
                                        0x822 (size before relaxing)
 .debug_str     0x0000000000002346      0x15e /home/crepel/Documents/EPFL/bluetooth_stuff/Link_layer_security/firmware_project/bin/targets/my_blinky_nordic/app/@apache-mynewt-core/kernel/os/@apache-mynewt-core_kernel_os.a(os_sched.o)
                                        0x991 (size before relaxing)
 .debug_str     0x00000000000024a4      0x19b /home/crepel/Documents/EPFL/bluetooth_stuff/Link_layer_security/firmware_project/bin/targets/my_blinky_nordic/app/@apache-mynewt-core/kernel/os/@apache-mynewt-core_kernel_os.a(os_task.o)
                                        0x9ea (size before relaxing)
 .debug_str     0x000000000000263f      0x2a6 /home/crepel/Documents/EPFL/bluetooth_stuff/Link_layer_security/firmware_project/bin/targets/my_blinky_nordic/app/@apache-mynewt-core/kernel/os/@apache-mynewt-core_kernel_os.a(os_time.o)
                                        0xa3b (size before relaxing)
 .debug_str     0x00000000000028e5      0x138 /home/crepel/Documents/EPFL/bluetooth_stuff/Link_layer_security/firmware_project/bin/targets/my_blinky_nordic/app/@apache-mynewt-core/kernel/os/@apache-mynewt-core_kernel_os.a(os_arch_arm.o)
                                        0xd33 (size before relaxing)
 .debug_str     0x0000000000002a1d       0xc2 /home/crepel/Documents/EPFL/bluetooth_stuff/Link_layer_security/firmware_project/bin/targets/my_blinky_nordic/app/@apache-mynewt-core/kernel/os/@apache-mynewt-core_kernel_os.a(os_fault.o)
                                        0x799 (size before relaxing)
 .debug_str     0x0000000000002adf      0x35e /home/crepel/Documents/EPFL/bluetooth_stuff/Link_layer_security/firmware_project/bin/targets/my_blinky_nordic/app/@apache-mynewt-core/kernel/os/@apache-mynewt-core_kernel_os.a(os_mbuf.o)
                                        0xc52 (size before relaxing)
 .debug_str     0x0000000000002e3d       0x42 /home/crepel/Documents/EPFL/bluetooth_stuff/Link_layer_security/firmware_project/bin/targets/my_blinky_nordic/app/@apache-mynewt-core/kernel/os/@apache-mynewt-core_kernel_os.a(os_mutex.o)
                                        0x81f (size before relaxing)
 .debug_str     0x0000000000002e7f       0x43 /home/crepel/Documents/EPFL/bluetooth_stuff/Link_layer_security/firmware_project/bin/targets/my_blinky_nordic/app/@apache-mynewt-core/kernel/os/@apache-mynewt-core_kernel_os.a(HAL_CM4.o)
                                         0xa2 (size before relaxing)
 .debug_str     0x0000000000002ec2       0x34 /home/crepel/Documents/EPFL/bluetooth_stuff/Link_layer_security/firmware_project/bin/targets/my_blinky_nordic/app/@apache-mynewt-core/libc/baselibc/@apache-mynewt-core_libc_baselibc.a(memcpy.o)
                                        0x1d9 (size before relaxing)
 .debug_str     0x0000000000002ef6       0x34 /home/crepel/Documents/EPFL/bluetooth_stuff/Link_layer_security/firmware_project/bin/targets/my_blinky_nordic/app/@apache-mynewt-core/libc/baselibc/@apache-mynewt-core_libc_baselibc.a(memset.o)
                                        0x21c (size before relaxing)
 .debug_str     0x0000000000002f2a       0x3b /home/crepel/Documents/EPFL/bluetooth_stuff/Link_layer_security/firmware_project/bin/targets/my_blinky_nordic/app/@apache-mynewt-core/libc/baselibc/@apache-mynewt-core_libc_baselibc.a(strlen.o)
                                        0x170 (size before relaxing)
 .debug_str     0x0000000000002f65      0x488 /home/crepel/Documents/EPFL/bluetooth_stuff/Link_layer_security/firmware_project/bin/targets/my_blinky_nordic/app/@apache-mynewt-core/sys/flash_map/@apache-mynewt-core_sys_flash_map.a(flash_map.o)
                                        0xadf (size before relaxing)
 .debug_str     0x00000000000033ed       0x35 /home/crepel/Documents/EPFL/bluetooth_stuff/Link_layer_security/firmware_project/bin/targets/my_blinky_nordic/app/@apache-mynewt-core/sys/log/modlog/@apache-mynewt-core_sys_log_modlog.a(modlog.o)
                                        0x5d7 (size before relaxing)
 .debug_str     0x0000000000003422      0x15f /home/crepel/Documents/EPFL/bluetooth_stuff/Link_layer_security/firmware_project/bin/targets/my_blinky_nordic/app/@apache-mynewt-core/sys/mfg/@apache-mynewt-core_sys_mfg.a(mfg.o)
                                        0x82e (size before relaxing)
 .debug_str     0x0000000000003581       0x60 /home/crepel/Documents/EPFL/bluetooth_stuff/Link_layer_security/firmware_project/bin/targets/my_blinky_nordic/app/@apache-mynewt-core/sys/sysinit/@apache-mynewt-core_sys_sysinit.a(sysinit.o)
                                        0x636 (size before relaxing)
 .debug_str     0x00000000000035e1       0xe7 /home/crepel/Documents/EPFL/bluetooth_stuff/Link_layer_security/firmware_project/bin/targets/my_blinky_nordic/app/@apache-mynewt-core/util/mem/@apache-mynewt-core_util_mem.a(mem.o)
                                        0x961 (size before relaxing)
 .debug_str     0x00000000000036c8       0x47 /home/crepel/Documents/EPFL/bluetooth_stuff/Link_layer_security/firmware_project/bin/targets/my_blinky_nordic/generated/bin/my_blinky_nordic-sysinit-app.a(my_blinky_nordic-sysflash.o)
                                        0x274 (size before relaxing)
 .debug_str     0x000000000000370f       0xe0 /home/crepel/Documents/EPFL/bluetooth_stuff/Link_layer_security/firmware_project/bin/targets/my_blinky_nordic/app/@apache-mynewt-core/hw/bsp/nordic_pca10056/@apache-mynewt-core_hw_bsp_nordic_pca10056.a(hal_bsp.o)
                                        0x9cc (size before relaxing)
 .debug_str     0x00000000000037ef       0xf7 /home/crepel/Documents/EPFL/bluetooth_stuff/Link_layer_security/firmware_project/bin/targets/my_blinky_nordic/app/@apache-mynewt-core/hw/hal/@apache-mynewt-core_hw_hal.a(hal_flash.o)
                                        0x84b (size before relaxing)
 .debug_str     0x00000000000038e6       0xd5 /home/crepel/Documents/EPFL/bluetooth_stuff/Link_layer_security/firmware_project/bin/targets/my_blinky_nordic/app/@apache-mynewt-core/hw/mcu/nordic/nrf52xxx/@apache-mynewt-core_hw_mcu_nordic_nrf52xxx.a(hal_flash.o)
                                        0x4fa (size before relaxing)
 .debug_str     0x00000000000039bb      0x15a /home/crepel/Documents/EPFL/bluetooth_stuff/Link_layer_security/firmware_project/bin/targets/my_blinky_nordic/app/@apache-mynewt-core/hw/mcu/nordic/nrf52xxx/@apache-mynewt-core_hw_mcu_nordic_nrf52xxx.a(hal_os_tick.o)
                                        0xc07 (size before relaxing)
 .debug_str     0x0000000000003b15       0xd0 /home/crepel/Documents/EPFL/bluetooth_stuff/Link_layer_security/firmware_project/bin/targets/my_blinky_nordic/app/@apache-mynewt-core/hw/mcu/nordic/nrf52xxx/@apache-mynewt-core_hw_mcu_nordic_nrf52xxx.a(hal_watchdog.o)
                                        0xb1f (size before relaxing)
 .debug_str     0x0000000000003be5      0x23b /home/crepel/Documents/EPFL/bluetooth_stuff/Link_layer_security/firmware_project/bin/targets/my_blinky_nordic/app/@apache-mynewt-core/hw/mcu/nordic/nrf52xxx/@apache-mynewt-core_hw_mcu_nordic_nrf52xxx.a(nrf52_periph.o)
                                        0x9fb (size before relaxing)
 .debug_str     0x0000000000003e20      0x6f4 /home/crepel/Documents/EPFL/bluetooth_stuff/Link_layer_security/firmware_project/bin/targets/my_blinky_nordic/app/@apache-mynewt-core/hw/mcu/nordic/nrf52xxx/@apache-mynewt-core_hw_mcu_nordic_nrf52xxx.a(hal_timer.o)
                                       0x1407 (size before relaxing)
 .debug_str     0x0000000000004514      0x11d /home/crepel/Documents/EPFL/bluetooth_stuff/Link_layer_security/firmware_project/bin/targets/my_blinky_nordic/app/@apache-mynewt-core/kernel/os/@apache-mynewt-core_kernel_os.a(os_cputime.o)
                                        0x7b4 (size before relaxing)
 .debug_str     0x0000000000004631      0x24c /home/crepel/Documents/EPFL/bluetooth_stuff/Link_layer_security/firmware_project/bin/targets/my_blinky_nordic/app/@apache-mynewt-core/hw/drivers/uart/uart_hal/@apache-mynewt-core_hw_drivers_uart_uart_hal.a(uart_hal.o)
                                        0xb40 (size before relaxing)
 .debug_str     0x000000000000487d      0x2a6 /home/crepel/Documents/EPFL/bluetooth_stuff/Link_layer_security/firmware_project/bin/targets/my_blinky_nordic/app/@apache-mynewt-core/hw/mcu/nordic/nrf52xxx/@apache-mynewt-core_hw_mcu_nordic_nrf52xxx.a(hal_uart.o)
                                        0xf11 (size before relaxing)

.debug_loc      0x0000000000000000     0x9c4d
 .debug_loc     0x0000000000000000       0x8d /home/crepel/Documents/EPFL/bluetooth_stuff/Link_layer_security/firmware_project/bin/targets/my_blinky_nordic/app/@apache-mynewt-core/hw/bsp/nordic_pca10056/@apache-mynewt-core_hw_bsp_nordic_pca10056.a(sbrk.o)
 .debug_loc     0x000000000000008d       0x42 /home/crepel/Documents/EPFL/bluetooth_stuff/Link_layer_security/firmware_project/bin/targets/my_blinky_nordic/app/apps/blinky/apps_blinky.a(main.o)
 .debug_loc     0x00000000000000cf       0x13 /home/crepel/Documents/EPFL/bluetooth_stuff/Link_layer_security/firmware_project/bin/targets/my_blinky_nordic/app/@apache-mynewt-core/hw/cmsis-core/@apache-mynewt-core_hw_cmsis-core.a(cmsis_nvic.o)
 .debug_loc     0x00000000000000e2      0x557 /home/crepel/Documents/EPFL/bluetooth_stuff/Link_layer_security/firmware_project/bin/targets/my_blinky_nordic/app/@apache-mynewt-core/hw/mcu/nordic/nrf52xxx/@apache-mynewt-core_hw_mcu_nordic_nrf52xxx.a(hal_gpio.o)
 .debug_loc     0x0000000000000639      0x2a8 /home/crepel/Documents/EPFL/bluetooth_stuff/Link_layer_security/firmware_project/bin/targets/my_blinky_nordic/app/@apache-mynewt-core/kernel/os/@apache-mynewt-core_kernel_os.a(os.o)
 .debug_loc     0x00000000000008e1      0x369 /home/crepel/Documents/EPFL/bluetooth_stuff/Link_layer_security/firmware_project/bin/targets/my_blinky_nordic/app/@apache-mynewt-core/kernel/os/@apache-mynewt-core_kernel_os.a(os_callout.o)
 .debug_loc     0x0000000000000c4a      0x663 /home/crepel/Documents/EPFL/bluetooth_stuff/Link_layer_security/firmware_project/bin/targets/my_blinky_nordic/app/@apache-mynewt-core/kernel/os/@apache-mynewt-core_kernel_os.a(os_dev.o)
 .debug_loc     0x00000000000012ad      0x60a /home/crepel/Documents/EPFL/bluetooth_stuff/Link_layer_security/firmware_project/bin/targets/my_blinky_nordic/app/@apache-mynewt-core/kernel/os/@apache-mynewt-core_kernel_os.a(os_eventq.o)
 .debug_loc     0x00000000000018b7      0x969 /home/crepel/Documents/EPFL/bluetooth_stuff/Link_layer_security/firmware_project/bin/targets/my_blinky_nordic/app/@apache-mynewt-core/kernel/os/@apache-mynewt-core_kernel_os.a(os_mempool.o)
 .debug_loc     0x0000000000002220      0x3e9 /home/crepel/Documents/EPFL/bluetooth_stuff/Link_layer_security/firmware_project/bin/targets/my_blinky_nordic/app/@apache-mynewt-core/kernel/os/@apache-mynewt-core_kernel_os.a(os_msys.o)
 .debug_loc     0x0000000000002609      0x16d /home/crepel/Documents/EPFL/bluetooth_stuff/Link_layer_security/firmware_project/bin/targets/my_blinky_nordic/app/@apache-mynewt-core/kernel/os/@apache-mynewt-core_kernel_os.a(os_sanity.o)
 .debug_loc     0x0000000000002776      0x434 /home/crepel/Documents/EPFL/bluetooth_stuff/Link_layer_security/firmware_project/bin/targets/my_blinky_nordic/app/@apache-mynewt-core/kernel/os/@apache-mynewt-core_kernel_os.a(os_sched.o)
 .debug_loc     0x0000000000002baa      0x3e6 /home/crepel/Documents/EPFL/bluetooth_stuff/Link_layer_security/firmware_project/bin/targets/my_blinky_nordic/app/@apache-mynewt-core/kernel/os/@apache-mynewt-core_kernel_os.a(os_task.o)
 .debug_loc     0x0000000000002f90      0x60e /home/crepel/Documents/EPFL/bluetooth_stuff/Link_layer_security/firmware_project/bin/targets/my_blinky_nordic/app/@apache-mynewt-core/kernel/os/@apache-mynewt-core_kernel_os.a(os_time.o)
 .debug_loc     0x000000000000359e      0x2dd /home/crepel/Documents/EPFL/bluetooth_stuff/Link_layer_security/firmware_project/bin/targets/my_blinky_nordic/app/@apache-mynewt-core/kernel/os/@apache-mynewt-core_kernel_os.a(os_arch_arm.o)
 .debug_loc     0x000000000000387b       0xa5 /home/crepel/Documents/EPFL/bluetooth_stuff/Link_layer_security/firmware_project/bin/targets/my_blinky_nordic/app/@apache-mynewt-core/kernel/os/@apache-mynewt-core_kernel_os.a(os_fault.o)
 .debug_loc     0x0000000000003920     0x1958 /home/crepel/Documents/EPFL/bluetooth_stuff/Link_layer_security/firmware_project/bin/targets/my_blinky_nordic/app/@apache-mynewt-core/kernel/os/@apache-mynewt-core_kernel_os.a(os_mbuf.o)
 .debug_loc     0x0000000000005278      0x3ee /home/crepel/Documents/EPFL/bluetooth_stuff/Link_layer_security/firmware_project/bin/targets/my_blinky_nordic/app/@apache-mynewt-core/kernel/os/@apache-mynewt-core_kernel_os.a(os_mutex.o)
 .debug_loc     0x0000000000005666       0x39 /home/crepel/Documents/EPFL/bluetooth_stuff/Link_layer_security/firmware_project/bin/targets/my_blinky_nordic/app/@apache-mynewt-core/libc/baselibc/@apache-mynewt-core_libc_baselibc.a(memset.o)
 .debug_loc     0x000000000000569f       0x3f /home/crepel/Documents/EPFL/bluetooth_stuff/Link_layer_security/firmware_project/bin/targets/my_blinky_nordic/app/@apache-mynewt-core/libc/baselibc/@apache-mynewt-core_libc_baselibc.a(strlen.o)
 .debug_loc     0x00000000000056de      0xae1 /home/crepel/Documents/EPFL/bluetooth_stuff/Link_layer_security/firmware_project/bin/targets/my_blinky_nordic/app/@apache-mynewt-core/sys/flash_map/@apache-mynewt-core_sys_flash_map.a(flash_map.o)
 .debug_loc     0x00000000000061bf      0x537 /home/crepel/Documents/EPFL/bluetooth_stuff/Link_layer_security/firmware_project/bin/targets/my_blinky_nordic/app/@apache-mynewt-core/sys/mfg/@apache-mynewt-core_sys_mfg.a(mfg.o)
 .debug_loc     0x00000000000066f6       0x84 /home/crepel/Documents/EPFL/bluetooth_stuff/Link_layer_security/firmware_project/bin/targets/my_blinky_nordic/app/@apache-mynewt-core/sys/sysinit/@apache-mynewt-core_sys_sysinit.a(sysinit.o)
 .debug_loc     0x000000000000677a      0x6b4 /home/crepel/Documents/EPFL/bluetooth_stuff/Link_layer_security/firmware_project/bin/targets/my_blinky_nordic/app/@apache-mynewt-core/util/mem/@apache-mynewt-core_util_mem.a(mem.o)
 .debug_loc     0x0000000000006e2e       0xf5 /home/crepel/Documents/EPFL/bluetooth_stuff/Link_layer_security/firmware_project/bin/targets/my_blinky_nordic/app/@apache-mynewt-core/hw/bsp/nordic_pca10056/@apache-mynewt-core_hw_bsp_nordic_pca10056.a(hal_bsp.o)
 .debug_loc     0x0000000000006f23      0x803 /home/crepel/Documents/EPFL/bluetooth_stuff/Link_layer_security/firmware_project/bin/targets/my_blinky_nordic/app/@apache-mynewt-core/hw/hal/@apache-mynewt-core_hw_hal.a(hal_flash.o)
 .debug_loc     0x0000000000007726      0x35f /home/crepel/Documents/EPFL/bluetooth_stuff/Link_layer_security/firmware_project/bin/targets/my_blinky_nordic/app/@apache-mynewt-core/hw/mcu/nordic/nrf52xxx/@apache-mynewt-core_hw_mcu_nordic_nrf52xxx.a(hal_flash.o)
 .debug_loc     0x0000000000007a85      0x3c2 /home/crepel/Documents/EPFL/bluetooth_stuff/Link_layer_security/firmware_project/bin/targets/my_blinky_nordic/app/@apache-mynewt-core/hw/mcu/nordic/nrf52xxx/@apache-mynewt-core_hw_mcu_nordic_nrf52xxx.a(hal_os_tick.o)
 .debug_loc     0x0000000000007e47       0xc9 /home/crepel/Documents/EPFL/bluetooth_stuff/Link_layer_security/firmware_project/bin/targets/my_blinky_nordic/app/@apache-mynewt-core/hw/mcu/nordic/nrf52xxx/@apache-mynewt-core_hw_mcu_nordic_nrf52xxx.a(hal_watchdog.o)
 .debug_loc     0x0000000000007f10       0x3c /home/crepel/Documents/EPFL/bluetooth_stuff/Link_layer_security/firmware_project/bin/targets/my_blinky_nordic/app/@apache-mynewt-core/hw/mcu/nordic/nrf52xxx/@apache-mynewt-core_hw_mcu_nordic_nrf52xxx.a(nrf52_periph.o)
 .debug_loc     0x0000000000007f4c      0xc65 /home/crepel/Documents/EPFL/bluetooth_stuff/Link_layer_security/firmware_project/bin/targets/my_blinky_nordic/app/@apache-mynewt-core/hw/mcu/nordic/nrf52xxx/@apache-mynewt-core_hw_mcu_nordic_nrf52xxx.a(hal_timer.o)
 .debug_loc     0x0000000000008bb1      0x2ef /home/crepel/Documents/EPFL/bluetooth_stuff/Link_layer_security/firmware_project/bin/targets/my_blinky_nordic/app/@apache-mynewt-core/kernel/os/@apache-mynewt-core_kernel_os.a(os_cputime.o)
 .debug_loc     0x0000000000008ea0      0x50f /home/crepel/Documents/EPFL/bluetooth_stuff/Link_layer_security/firmware_project/bin/targets/my_blinky_nordic/app/@apache-mynewt-core/hw/drivers/uart/uart_hal/@apache-mynewt-core_hw_drivers_uart_uart_hal.a(uart_hal.o)
 .debug_loc     0x00000000000093af      0x89e /home/crepel/Documents/EPFL/bluetooth_stuff/Link_layer_security/firmware_project/bin/targets/my_blinky_nordic/app/@apache-mynewt-core/hw/mcu/nordic/nrf52xxx/@apache-mynewt-core_hw_mcu_nordic_nrf52xxx.a(hal_uart.o)

.debug_ranges   0x0000000000000000      0xc30
 .debug_ranges  0x0000000000000000       0x18 /home/crepel/Documents/EPFL/bluetooth_stuff/Link_layer_security/firmware_project/bin/targets/my_blinky_nordic/app/@apache-mynewt-core/hw/bsp/nordic_pca10056/@apache-mynewt-core_hw_bsp_nordic_pca10056.a(sbrk.o)
 .debug_ranges  0x0000000000000018       0x28 /home/crepel/Documents/EPFL/bluetooth_stuff/Link_layer_security/firmware_project/bin/targets/my_blinky_nordic/app/@apache-mynewt-core/hw/mcu/nordic/nrf52xxx/@apache-mynewt-core_hw_mcu_nordic_nrf52xxx.a(hal_system.o)
 .debug_ranges  0x0000000000000040       0x48 /home/crepel/Documents/EPFL/bluetooth_stuff/Link_layer_security/firmware_project/bin/targets/my_blinky_nordic/app/@apache-mynewt-core/hw/mcu/nordic/nrf52xxx/@apache-mynewt-core_hw_mcu_nordic_nrf52xxx.a(system_nrf52.o)
 .debug_ranges  0x0000000000000088       0x18 /home/crepel/Documents/EPFL/bluetooth_stuff/Link_layer_security/firmware_project/bin/targets/my_blinky_nordic/app/@apache-mynewt-core/libc/baselibc/@apache-mynewt-core_libc_baselibc.a(start.o)
 .debug_ranges  0x00000000000000a0       0x10 /home/crepel/Documents/EPFL/bluetooth_stuff/Link_layer_security/firmware_project/bin/targets/my_blinky_nordic/app/apps/blinky/apps_blinky.a(main.o)
 .debug_ranges  0x00000000000000b0       0x10 /home/crepel/Documents/EPFL/bluetooth_stuff/Link_layer_security/firmware_project/bin/targets/my_blinky_nordic/generated/bin/my_blinky_nordic-sysinit-app.a(my_blinky_nordic-sysinit-app.o)
 .debug_ranges  0x00000000000000c0       0x10 /home/crepel/Documents/EPFL/bluetooth_stuff/Link_layer_security/firmware_project/bin/targets/my_blinky_nordic/app/@apache-mynewt-core/hw/cmsis-core/@apache-mynewt-core_hw_cmsis-core.a(cmsis_nvic.o)
 .debug_ranges  0x00000000000000d0       0x78 /home/crepel/Documents/EPFL/bluetooth_stuff/Link_layer_security/firmware_project/bin/targets/my_blinky_nordic/app/@apache-mynewt-core/hw/mcu/nordic/nrf52xxx/@apache-mynewt-core_hw_mcu_nordic_nrf52xxx.a(hal_gpio.o)
 .debug_ranges  0x0000000000000148       0x50 /home/crepel/Documents/EPFL/bluetooth_stuff/Link_layer_security/firmware_project/bin/targets/my_blinky_nordic/app/@apache-mynewt-core/kernel/os/@apache-mynewt-core_kernel_os.a(os.o)
 .debug_ranges  0x0000000000000198       0x38 /home/crepel/Documents/EPFL/bluetooth_stuff/Link_layer_security/firmware_project/bin/targets/my_blinky_nordic/app/@apache-mynewt-core/kernel/os/@apache-mynewt-core_kernel_os.a(os_callout.o)
 .debug_ranges  0x00000000000001d0       0x78 /home/crepel/Documents/EPFL/bluetooth_stuff/Link_layer_security/firmware_project/bin/targets/my_blinky_nordic/app/@apache-mynewt-core/kernel/os/@apache-mynewt-core_kernel_os.a(os_dev.o)
 .debug_ranges  0x0000000000000248       0x78 /home/crepel/Documents/EPFL/bluetooth_stuff/Link_layer_security/firmware_project/bin/targets/my_blinky_nordic/app/@apache-mynewt-core/kernel/os/@apache-mynewt-core_kernel_os.a(os_eventq.o)
 .debug_ranges  0x00000000000002c0       0x68 /home/crepel/Documents/EPFL/bluetooth_stuff/Link_layer_security/firmware_project/bin/targets/my_blinky_nordic/app/@apache-mynewt-core/kernel/os/@apache-mynewt-core_kernel_os.a(os_mempool.o)
 .debug_ranges  0x0000000000000328       0x58 /home/crepel/Documents/EPFL/bluetooth_stuff/Link_layer_security/firmware_project/bin/targets/my_blinky_nordic/app/@apache-mynewt-core/kernel/os/@apache-mynewt-core_kernel_os.a(os_msys.o)
 .debug_ranges  0x0000000000000380       0x48 /home/crepel/Documents/EPFL/bluetooth_stuff/Link_layer_security/firmware_project/bin/targets/my_blinky_nordic/app/@apache-mynewt-core/kernel/os/@apache-mynewt-core_kernel_os.a(os_sanity.o)
 .debug_ranges  0x00000000000003c8       0x80 /home/crepel/Documents/EPFL/bluetooth_stuff/Link_layer_security/firmware_project/bin/targets/my_blinky_nordic/app/@apache-mynewt-core/kernel/os/@apache-mynewt-core_kernel_os.a(os_sched.o)
 .debug_ranges  0x0000000000000448       0x40 /home/crepel/Documents/EPFL/bluetooth_stuff/Link_layer_security/firmware_project/bin/targets/my_blinky_nordic/app/@apache-mynewt-core/kernel/os/@apache-mynewt-core_kernel_os.a(os_task.o)
 .debug_ranges  0x0000000000000488       0x90 /home/crepel/Documents/EPFL/bluetooth_stuff/Link_layer_security/firmware_project/bin/targets/my_blinky_nordic/app/@apache-mynewt-core/kernel/os/@apache-mynewt-core_kernel_os.a(os_time.o)
 .debug_ranges  0x0000000000000518       0x60 /home/crepel/Documents/EPFL/bluetooth_stuff/Link_layer_security/firmware_project/bin/targets/my_blinky_nordic/app/@apache-mynewt-core/kernel/os/@apache-mynewt-core_kernel_os.a(os_arch_arm.o)
 .debug_ranges  0x0000000000000578       0x18 /home/crepel/Documents/EPFL/bluetooth_stuff/Link_layer_security/firmware_project/bin/targets/my_blinky_nordic/app/@apache-mynewt-core/kernel/os/@apache-mynewt-core_kernel_os.a(os_fault.o)
 .debug_ranges  0x0000000000000590      0x168 /home/crepel/Documents/EPFL/bluetooth_stuff/Link_layer_security/firmware_project/bin/targets/my_blinky_nordic/app/@apache-mynewt-core/kernel/os/@apache-mynewt-core_kernel_os.a(os_mbuf.o)
 .debug_ranges  0x00000000000006f8       0x20 /home/crepel/Documents/EPFL/bluetooth_stuff/Link_layer_security/firmware_project/bin/targets/my_blinky_nordic/app/@apache-mynewt-core/kernel/os/@apache-mynewt-core_kernel_os.a(os_mutex.o)
 .debug_ranges  0x0000000000000718       0x10 /home/crepel/Documents/EPFL/bluetooth_stuff/Link_layer_security/firmware_project/bin/targets/my_blinky_nordic/app/@apache-mynewt-core/libc/baselibc/@apache-mynewt-core_libc_baselibc.a(memcpy.o)
 .debug_ranges  0x0000000000000728       0x10 /home/crepel/Documents/EPFL/bluetooth_stuff/Link_layer_security/firmware_project/bin/targets/my_blinky_nordic/app/@apache-mynewt-core/libc/baselibc/@apache-mynewt-core_libc_baselibc.a(memset.o)
 .debug_ranges  0x0000000000000738       0x10 /home/crepel/Documents/EPFL/bluetooth_stuff/Link_layer_security/firmware_project/bin/targets/my_blinky_nordic/app/@apache-mynewt-core/libc/baselibc/@apache-mynewt-core_libc_baselibc.a(strlen.o)
 .debug_ranges  0x0000000000000748       0x98 /home/crepel/Documents/EPFL/bluetooth_stuff/Link_layer_security/firmware_project/bin/targets/my_blinky_nordic/app/@apache-mynewt-core/sys/flash_map/@apache-mynewt-core_sys_flash_map.a(flash_map.o)
 .debug_ranges  0x00000000000007e0       0x10 /home/crepel/Documents/EPFL/bluetooth_stuff/Link_layer_security/firmware_project/bin/targets/my_blinky_nordic/app/@apache-mynewt-core/sys/log/modlog/@apache-mynewt-core_sys_log_modlog.a(modlog.o)
 .debug_ranges  0x00000000000007f0       0x70 /home/crepel/Documents/EPFL/bluetooth_stuff/Link_layer_security/firmware_project/bin/targets/my_blinky_nordic/app/@apache-mynewt-core/sys/mfg/@apache-mynewt-core_sys_mfg.a(mfg.o)
 .debug_ranges  0x0000000000000860       0x28 /home/crepel/Documents/EPFL/bluetooth_stuff/Link_layer_security/firmware_project/bin/targets/my_blinky_nordic/app/@apache-mynewt-core/sys/sysinit/@apache-mynewt-core_sys_sysinit.a(sysinit.o)
 .debug_ranges  0x0000000000000888       0x48 /home/crepel/Documents/EPFL/bluetooth_stuff/Link_layer_security/firmware_project/bin/targets/my_blinky_nordic/app/@apache-mynewt-core/util/mem/@apache-mynewt-core_util_mem.a(mem.o)
 .debug_ranges  0x00000000000008d0       0x30 /home/crepel/Documents/EPFL/bluetooth_stuff/Link_layer_security/firmware_project/bin/targets/my_blinky_nordic/app/@apache-mynewt-core/hw/bsp/nordic_pca10056/@apache-mynewt-core_hw_bsp_nordic_pca10056.a(hal_bsp.o)
 .debug_ranges  0x0000000000000900       0x78 /home/crepel/Documents/EPFL/bluetooth_stuff/Link_layer_security/firmware_project/bin/targets/my_blinky_nordic/app/@apache-mynewt-core/hw/hal/@apache-mynewt-core_hw_hal.a(hal_flash.o)
 .debug_ranges  0x0000000000000978       0x38 /home/crepel/Documents/EPFL/bluetooth_stuff/Link_layer_security/firmware_project/bin/targets/my_blinky_nordic/app/@apache-mynewt-core/hw/mcu/nordic/nrf52xxx/@apache-mynewt-core_hw_mcu_nordic_nrf52xxx.a(hal_flash.o)
 .debug_ranges  0x00000000000009b0       0x98 /home/crepel/Documents/EPFL/bluetooth_stuff/Link_layer_security/firmware_project/bin/targets/my_blinky_nordic/app/@apache-mynewt-core/hw/mcu/nordic/nrf52xxx/@apache-mynewt-core_hw_mcu_nordic_nrf52xxx.a(hal_os_tick.o)
 .debug_ranges  0x0000000000000a48       0x30 /home/crepel/Documents/EPFL/bluetooth_stuff/Link_layer_security/firmware_project/bin/targets/my_blinky_nordic/app/@apache-mynewt-core/hw/mcu/nordic/nrf52xxx/@apache-mynewt-core_hw_mcu_nordic_nrf52xxx.a(hal_watchdog.o)
 .debug_ranges  0x0000000000000a78       0x20 /home/crepel/Documents/EPFL/bluetooth_stuff/Link_layer_security/firmware_project/bin/targets/my_blinky_nordic/app/@apache-mynewt-core/hw/mcu/nordic/nrf52xxx/@apache-mynewt-core_hw_mcu_nordic_nrf52xxx.a(nrf52_periph.o)
 .debug_ranges  0x0000000000000a98       0x98 /home/crepel/Documents/EPFL/bluetooth_stuff/Link_layer_security/firmware_project/bin/targets/my_blinky_nordic/app/@apache-mynewt-core/hw/mcu/nordic/nrf52xxx/@apache-mynewt-core_hw_mcu_nordic_nrf52xxx.a(hal_timer.o)
 .debug_ranges  0x0000000000000b30       0x50 /home/crepel/Documents/EPFL/bluetooth_stuff/Link_layer_security/firmware_project/bin/targets/my_blinky_nordic/app/@apache-mynewt-core/kernel/os/@apache-mynewt-core_kernel_os.a(os_cputime.o)
 .debug_ranges  0x0000000000000b80       0x48 /home/crepel/Documents/EPFL/bluetooth_stuff/Link_layer_security/firmware_project/bin/targets/my_blinky_nordic/app/@apache-mynewt-core/hw/drivers/uart/uart_hal/@apache-mynewt-core_hw_drivers_uart_uart_hal.a(uart_hal.o)
 .debug_ranges  0x0000000000000bc8       0x68 /home/crepel/Documents/EPFL/bluetooth_stuff/Link_layer_security/firmware_project/bin/targets/my_blinky_nordic/app/@apache-mynewt-core/hw/mcu/nordic/nrf52xxx/@apache-mynewt-core_hw_mcu_nordic_nrf52xxx.a(hal_uart.o)

.debug_frame    0x0000000000000000     0x21b4
 .debug_frame   0x0000000000000000       0x30 /home/crepel/Documents/EPFL/bluetooth_stuff/Link_layer_security/firmware_project/bin/targets/my_blinky_nordic/app/@apache-mynewt-core/hw/bsp/nordic_pca10056/@apache-mynewt-core_hw_bsp_nordic_pca10056.a(sbrk.o)
 .debug_frame   0x0000000000000030       0x58 /home/crepel/Documents/EPFL/bluetooth_stuff/Link_layer_security/firmware_project/bin/targets/my_blinky_nordic/app/@apache-mynewt-core/hw/mcu/nordic/nrf52xxx/@apache-mynewt-core_hw_mcu_nordic_nrf52xxx.a(hal_system.o)
 .debug_frame   0x0000000000000088       0x98 /home/crepel/Documents/EPFL/bluetooth_stuff/Link_layer_security/firmware_project/bin/targets/my_blinky_nordic/app/@apache-mynewt-core/hw/mcu/nordic/nrf52xxx/@apache-mynewt-core_hw_mcu_nordic_nrf52xxx.a(system_nrf52.o)
 .debug_frame   0x0000000000000120       0x38 /home/crepel/Documents/EPFL/bluetooth_stuff/Link_layer_security/firmware_project/bin/targets/my_blinky_nordic/app/@apache-mynewt-core/libc/baselibc/@apache-mynewt-core_libc_baselibc.a(start.o)
 .debug_frame   0x0000000000000158       0x28 /home/crepel/Documents/EPFL/bluetooth_stuff/Link_layer_security/firmware_project/bin/targets/my_blinky_nordic/app/apps/blinky/apps_blinky.a(main.o)
 .debug_frame   0x0000000000000180       0x28 /home/crepel/Documents/EPFL/bluetooth_stuff/Link_layer_security/firmware_project/bin/targets/my_blinky_nordic/generated/bin/my_blinky_nordic-sysinit-app.a(my_blinky_nordic-sysinit-app.o)
 .debug_frame   0x00000000000001a8       0x20 /home/crepel/Documents/EPFL/bluetooth_stuff/Link_layer_security/firmware_project/bin/targets/my_blinky_nordic/app/@apache-mynewt-core/hw/cmsis-core/@apache-mynewt-core_hw_cmsis-core.a(cmsis_nvic.o)
 .debug_frame   0x00000000000001c8      0x158 /home/crepel/Documents/EPFL/bluetooth_stuff/Link_layer_security/firmware_project/bin/targets/my_blinky_nordic/app/@apache-mynewt-core/hw/mcu/nordic/nrf52xxx/@apache-mynewt-core_hw_mcu_nordic_nrf52xxx.a(hal_gpio.o)
 .debug_frame   0x0000000000000320       0xf8 /home/crepel/Documents/EPFL/bluetooth_stuff/Link_layer_security/firmware_project/bin/targets/my_blinky_nordic/app/@apache-mynewt-core/kernel/os/@apache-mynewt-core_kernel_os.a(os.o)
 .debug_frame   0x0000000000000418       0xb8 /home/crepel/Documents/EPFL/bluetooth_stuff/Link_layer_security/firmware_project/bin/targets/my_blinky_nordic/app/@apache-mynewt-core/kernel/os/@apache-mynewt-core_kernel_os.a(os_callout.o)
 .debug_frame   0x00000000000004d0      0x184 /home/crepel/Documents/EPFL/bluetooth_stuff/Link_layer_security/firmware_project/bin/targets/my_blinky_nordic/app/@apache-mynewt-core/kernel/os/@apache-mynewt-core_kernel_os.a(os_dev.o)
 .debug_frame   0x0000000000000654      0x11c /home/crepel/Documents/EPFL/bluetooth_stuff/Link_layer_security/firmware_project/bin/targets/my_blinky_nordic/app/@apache-mynewt-core/kernel/os/@apache-mynewt-core_kernel_os.a(os_eventq.o)
 .debug_frame   0x0000000000000770      0x150 /home/crepel/Documents/EPFL/bluetooth_stuff/Link_layer_security/firmware_project/bin/targets/my_blinky_nordic/app/@apache-mynewt-core/kernel/os/@apache-mynewt-core_kernel_os.a(os_mempool.o)
 .debug_frame   0x00000000000008c0       0xf0 /home/crepel/Documents/EPFL/bluetooth_stuff/Link_layer_security/firmware_project/bin/targets/my_blinky_nordic/app/@apache-mynewt-core/kernel/os/@apache-mynewt-core_kernel_os.a(os_msys.o)
 .debug_frame   0x00000000000009b0       0xc8 /home/crepel/Documents/EPFL/bluetooth_stuff/Link_layer_security/firmware_project/bin/targets/my_blinky_nordic/app/@apache-mynewt-core/kernel/os/@apache-mynewt-core_kernel_os.a(os_sanity.o)
 .debug_frame   0x0000000000000a78      0x120 /home/crepel/Documents/EPFL/bluetooth_stuff/Link_layer_security/firmware_project/bin/targets/my_blinky_nordic/app/@apache-mynewt-core/kernel/os/@apache-mynewt-core_kernel_os.a(os_sched.o)
 .debug_frame   0x0000000000000b98       0xb0 /home/crepel/Documents/EPFL/bluetooth_stuff/Link_layer_security/firmware_project/bin/targets/my_blinky_nordic/app/@apache-mynewt-core/kernel/os/@apache-mynewt-core_kernel_os.a(os_task.o)
 .debug_frame   0x0000000000000c48      0x1ec /home/crepel/Documents/EPFL/bluetooth_stuff/Link_layer_security/firmware_project/bin/targets/my_blinky_nordic/app/@apache-mynewt-core/kernel/os/@apache-mynewt-core_kernel_os.a(os_time.o)
 .debug_frame   0x0000000000000e34      0x104 /home/crepel/Documents/EPFL/bluetooth_stuff/Link_layer_security/firmware_project/bin/targets/my_blinky_nordic/app/@apache-mynewt-core/kernel/os/@apache-mynewt-core_kernel_os.a(os_arch_arm.o)
 .debug_frame   0x0000000000000f38       0x40 /home/crepel/Documents/EPFL/bluetooth_stuff/Link_layer_security/firmware_project/bin/targets/my_blinky_nordic/app/@apache-mynewt-core/kernel/os/@apache-mynewt-core_kernel_os.a(os_fault.o)
 .debug_frame   0x0000000000000f78      0x340 /home/crepel/Documents/EPFL/bluetooth_stuff/Link_layer_security/firmware_project/bin/targets/my_blinky_nordic/app/@apache-mynewt-core/kernel/os/@apache-mynewt-core_kernel_os.a(os_mbuf.o)
 .debug_frame   0x00000000000012b8       0x6c /home/crepel/Documents/EPFL/bluetooth_stuff/Link_layer_security/firmware_project/bin/targets/my_blinky_nordic/app/@apache-mynewt-core/kernel/os/@apache-mynewt-core_kernel_os.a(os_mutex.o)
 .debug_frame   0x0000000000001324       0x20 /home/crepel/Documents/EPFL/bluetooth_stuff/Link_layer_security/firmware_project/bin/targets/my_blinky_nordic/app/@apache-mynewt-core/libc/baselibc/@apache-mynewt-core_libc_baselibc.a(memcpy.o)
 .debug_frame   0x0000000000001344       0x2c /home/crepel/Documents/EPFL/bluetooth_stuff/Link_layer_security/firmware_project/bin/targets/my_blinky_nordic/app/@apache-mynewt-core/libc/baselibc/@apache-mynewt-core_libc_baselibc.a(memset.o)
 .debug_frame   0x0000000000001370       0x20 /home/crepel/Documents/EPFL/bluetooth_stuff/Link_layer_security/firmware_project/bin/targets/my_blinky_nordic/app/@apache-mynewt-core/libc/baselibc/@apache-mynewt-core_libc_baselibc.a(strlen.o)
 .debug_frame   0x0000000000001390      0x230 /home/crepel/Documents/EPFL/bluetooth_stuff/Link_layer_security/firmware_project/bin/targets/my_blinky_nordic/app/@apache-mynewt-core/sys/flash_map/@apache-mynewt-core_sys_flash_map.a(flash_map.o)
 .debug_frame   0x00000000000015c0       0x20 /home/crepel/Documents/EPFL/bluetooth_stuff/Link_layer_security/firmware_project/bin/targets/my_blinky_nordic/app/@apache-mynewt-core/sys/log/modlog/@apache-mynewt-core_sys_log_modlog.a(modlog.o)
 .debug_frame   0x00000000000015e0      0x174 /home/crepel/Documents/EPFL/bluetooth_stuff/Link_layer_security/firmware_project/bin/targets/my_blinky_nordic/app/@apache-mynewt-core/sys/mfg/@apache-mynewt-core_sys_mfg.a(mfg.o)
 .debug_frame   0x0000000000001754       0x58 /home/crepel/Documents/EPFL/bluetooth_stuff/Link_layer_security/firmware_project/bin/targets/my_blinky_nordic/app/@apache-mynewt-core/sys/sysinit/@apache-mynewt-core_sys_sysinit.a(sysinit.o)
 .debug_frame   0x00000000000017ac      0x118 /home/crepel/Documents/EPFL/bluetooth_stuff/Link_layer_security/firmware_project/bin/targets/my_blinky_nordic/app/@apache-mynewt-core/util/mem/@apache-mynewt-core_util_mem.a(mem.o)
 .debug_frame   0x00000000000018c4       0x68 /home/crepel/Documents/EPFL/bluetooth_stuff/Link_layer_security/firmware_project/bin/targets/my_blinky_nordic/app/@apache-mynewt-core/hw/bsp/nordic_pca10056/@apache-mynewt-core_hw_bsp_nordic_pca10056.a(hal_bsp.o)
 .debug_frame   0x000000000000192c      0x1a4 /home/crepel/Documents/EPFL/bluetooth_stuff/Link_layer_security/firmware_project/bin/targets/my_blinky_nordic/app/@apache-mynewt-core/hw/hal/@apache-mynewt-core_hw_hal.a(hal_flash.o)
 .debug_frame   0x0000000000001ad0       0xac /home/crepel/Documents/EPFL/bluetooth_stuff/Link_layer_security/firmware_project/bin/targets/my_blinky_nordic/app/@apache-mynewt-core/hw/mcu/nordic/nrf52xxx/@apache-mynewt-core_hw_mcu_nordic_nrf52xxx.a(hal_flash.o)
 .debug_frame   0x0000000000001b7c       0x68 /home/crepel/Documents/EPFL/bluetooth_stuff/Link_layer_security/firmware_project/bin/targets/my_blinky_nordic/app/@apache-mynewt-core/hw/mcu/nordic/nrf52xxx/@apache-mynewt-core_hw_mcu_nordic_nrf52xxx.a(hal_os_tick.o)
 .debug_frame   0x0000000000001be4       0x78 /home/crepel/Documents/EPFL/bluetooth_stuff/Link_layer_security/firmware_project/bin/targets/my_blinky_nordic/app/@apache-mynewt-core/hw/mcu/nordic/nrf52xxx/@apache-mynewt-core_hw_mcu_nordic_nrf52xxx.a(hal_watchdog.o)
 .debug_frame   0x0000000000001c5c       0x60 /home/crepel/Documents/EPFL/bluetooth_stuff/Link_layer_security/firmware_project/bin/targets/my_blinky_nordic/app/@apache-mynewt-core/hw/mcu/nordic/nrf52xxx/@apache-mynewt-core_hw_mcu_nordic_nrf52xxx.a(nrf52_periph.o)
 .debug_frame   0x0000000000001cbc      0x1e8 /home/crepel/Documents/EPFL/bluetooth_stuff/Link_layer_security/firmware_project/bin/targets/my_blinky_nordic/app/@apache-mynewt-core/hw/mcu/nordic/nrf52xxx/@apache-mynewt-core_hw_mcu_nordic_nrf52xxx.a(hal_timer.o)
 .debug_frame   0x0000000000001ea4       0xec /home/crepel/Documents/EPFL/bluetooth_stuff/Link_layer_security/firmware_project/bin/targets/my_blinky_nordic/app/@apache-mynewt-core/kernel/os/@apache-mynewt-core_kernel_os.a(os_cputime.o)
 .debug_frame   0x0000000000001f90       0xf0 /home/crepel/Documents/EPFL/bluetooth_stuff/Link_layer_security/firmware_project/bin/targets/my_blinky_nordic/app/@apache-mynewt-core/hw/drivers/uart/uart_hal/@apache-mynewt-core_hw_drivers_uart_uart_hal.a(uart_hal.o)
 .debug_frame   0x0000000000002080      0x134 /home/crepel/Documents/EPFL/bluetooth_stuff/Link_layer_security/firmware_project/bin/targets/my_blinky_nordic/app/@apache-mynewt-core/hw/mcu/nordic/nrf52xxx/@apache-mynewt-core_hw_mcu_nordic_nrf52xxx.a(hal_uart.o)
